(lp0
I16
aI64
aI816
aI64
aI16
aI16
aI48
aI16
aI16
aI16
aI880
aI16
aI192
aI2384
aI16
aI16
aI32
aI16
aI16
aI16
aI16
aI32
aI32
aI64
aI256
aI32
aI128
aI32
aI96
aI80
aI16
aI192
aI16
aI16
aI16
aI32
aI304
aI16
aI16
aI48
aI16
aI48
aI32
aI16
aI64
aI16
aI176
aI16
aI16
aI16
aI32
aI32
aI784
aI16
aI2449
aI32
aI32
aI16
aI32
aI16
aI16
aI16
aI48
aI16
aI224
aI16
aI32
aI224
aI16
aI16
aI16
aI16
aI32
aI16
aI96
aI32
aI32
aI2064
aI16
aI32
aI304
aI16
aI48
aI32
aI16
aI16
aI48
aI144
aI16
aI384
aI16
aI1104
aI32
aI16
aI64
aI32
aI128
aI64
aI64
aI16
aI32
aI240
aI16
aI16
aI48
aI16
aI16
aI64
aI32
aI16
aI208
aI208
aI16
aI16
aI48
aI80
aI16
aI464
aI112
aI336
aI272
aI32
aI32
aI64
aI336
aI32
aI32
aI16
aI16
aI1360
aI16
aI64
aI32
aI32
aI32
aI272
aI32
aI160
aI16
aI80
aI48
aI16
aI32
aI32
aI32
aI16
aI128
aI16
aI384
aI32
aI16
aI32
aI64
aI16
aI48
aI32
aI128
aI16
aI32
aI16
aI16
aI16
aI16
aI16
aI16
aI32
aI16
aI112
aI48
aI96
aI16
aI48
aI144
aI48
aI64
aI48
aI32
aI176
aI144
aI2656
aI32
aI16
aI16
aI16
aI160
aI16
aI880
aI16
aI240
aI64
aI2896
aI496
aI16
aI16
aI16
aI16
aI1
aI16
aI16
aI16
aI16
aI16
aI128
aI48
aI32
aI16
aI80
aI128
aI16
aI32
aI16
aI1184
aI32
aI16
aI16
aI32
aI48
aI16
aI32
aI176
aI160
aI352
aI48
aI16
aI560
aI16
aI32
aI16
aI32
aI16
aI32
aI16
aI16
aI16
aI64
aI16
aI16
aI192
aI16
aI80
aI144
aI16
aI16
aI16
aI16
aI16
aI64
aI64
aI16
aI128
aI80
aI16
aI32
aI16
aI16
aI80
aI240
aI48
aI64
aI112
aI16
aI32
aI16
aI16
aI96
aI96
aI32
aI32
aI16
aI32
aI64
aI2048
aI48
aI48
aI16
aI320
aI16
aI16
aI16
aI64
aI32
aI16
aI16
aI128
aI16
aI16
aI80
aI64
aI32
aI32
aI16
aI16
aI16
aI16
aI32
aI32
aI16
aI16
aI64
aI16
aI48
aI32
aI32
aI304
aI336
aI32
aI16
aI32
aI480
aI32
aI112
aI304
aI32
aI16
aI16
aI64
aI16
aI16
aI16
aI16
aI32
aI16
aI80
aI16
aI16
aI96
aI112
aI16
aI32
aI16
aI64
aI16
aI64
aI16
aI16
aI176
aI16
aI112
aI32
aI48
aI48
aI32
aI48
aI16
aI16
aI32
aI16
aI16
aI16
aI16
aI32
aI16
aI32
aI32
aI16
aI16
aI32
aI16
aI2224
aI32
aI32
aI32
aI64
aI480
aI16
aI784
aI256
aI48
aI16
aI32
aI1088
aI32
aI48
aI16
aI16
aI16
aI16
aI16
aI32
aI32
aI16
aI64
aI16
aI16
aI16
aI16
aI32
aI16
aI16
aI16
aI16
aI32
aI64
aI128
aI16
aI16
aI48
aI48
aI256
aI32
aI981
aI48
aI16
aI16
aI64
aI208
aI16
aI32
aI16
aI16
aI32
aI96
aI48
aI16
aI32
aI48
aI16
aI16
aI16
aI16
aI224
aI128
aI32
aI16
aI608
aI16
aI160
aI16
aI32
aI32
aI16
aI16
aI32
aI16
aI656
aI16
aI48
aI160
aI16
aI48
aI16
aI1280
aI320
aI16
aI16
aI16
aI48
aI64
aI32
aI32
aI16
aI48
aI32
aI80
aI32
aI16
aI32
aI80
aI144
aI48
aI16
aI368
aI16
aI240
aI32
aI64
aI16
aI528
aI144
aI16
aI80
aI32
aI16
aI80
aI384
aI48
aI32
aI96
aI96
aI368
aI16
aI80
aI16
aI16
aI16
aI16
aI16
aI32
aI48
aI400
aI128
aI64
aI16
aI16
aI16
aI48
aI16
aI16
aI48
aI32
aI144
aI16
aI32
aI16
aI32
aI16
aI880
aI16
aI16
aI656
aI32
aI16
aI64
aI96
aI80
aI16
aI16
aI16
aI16
aI16
aI16
aI896
aI16
aI32
aI16
aI48
aI16
aI1552
aI16
aI32
aI16
aI176
aI16
aI16
aI32
aI16
aI144
aI32
aI32
aI64
aI16
aI32
aI160
aI16
aI96
aI112
aI112
aI48
aI32
aI32
aI32
aI16
aI64
aI112
aI16
aI96
aI48
aI432
aI16
aI32
aI16
aI16
aI32
aI400
aI16
aI16
aI32
aI16
aI272
aI32
aI176
aI128
aI1104
aI64
aI32
aI32
aI240
aI48
aI48
aI16
aI16
aI16
aI16
aI16
aI64
aI32
aI16
aI48
aI400
aI48
aI416
aI32
aI16
aI2064
aI48
aI48
aI208
aI16
aI368
aI32
aI64
aI16
aI16
aI800
aI48
aI16
aI16
aI32
aI448
aI640
aI32
aI48
aI16
aI144
aI32
aI16
aI768
aI16
aI48
aI16
aI32
aI16
aI16
aI16
aI64
aI80
aI16
aI16
aI32
aI240
aI16
aI32
aI16
aI16
aI48
aI16
aI16
aI112
aI192
aI16
aI16
aI720
aI80
aI48
aI160
aI48
aI48
aI80
aI32
aI192
aI48
aI144
aI16
aI16
aI48
aI16
aI16
aI176
aI80
aI32
aI16
aI32
aI16
aI16
aI16
aI32
aI48
aI16
aI16
aI32
aI16
aI848
aI32
aI16
aI160
aI16
aI64
aI16
aI16
aI128
aI32
aI48
aI16
aI16
aI16
aI16
aI704
aI256
aI48
aI16
aI16
aI48
aI32
aI32
aI3456
aI16
aI16
aI48
aI16
aI160
aI16
aI96
aI16
aI768
aI80
aI16
aI16
aI16
aI80
aI16
aI16
aI16
aI32
aI1232
aI128
aI32
aI64
aI48
aI32
aI128
aI16
aI48
aI320
aI16
aI16
aI1
aI48
aI16
aI96
aI16
aI304
aI16
aI384
aI1872
aI592
aI208
aI144
aI1440
aI112
aI16
aI16
aI48
aI16
aI16
aI16
aI16
aI16
aI16
aI32
aI16
aI16
aI49571
aI272
aI48
aI64
aI48
aI16
aI16
aI1552
aI16
aI16
aI32
aI16
aI16
aI32
aI32
aI16
aI16
aI48
aI96
aI48
aI16
aI80
aI96
aI272
aI32
aI16
aI256
aI32
aI16
aI432
aI16
aI16
aI80
aI16
aI16
aI16
aI144
aI32
aI288
aI48
aI384
aI32
aI96
aI16
aI128
aI32
aI32
aI464
aI144
aI64
aI320
aI96
aI16
aI16
aI32
aI32
aI32
aI16
aI2064
aI32
aI48
aI48
aI16
aI32
aI32
aI240
aI272
aI224
aI16
aI96
aI16
aI112
aI672
aI48
aI16
aI1440
aI64
aI48
aI16
aI80
aI16
aI16
aI16
aI80
aI32
aI160
aI16
aI16
aI16
aI48
aI80
aI32
aI16
aI48
aI64
aI32
aI112
aI752
aI112
aI336
aI16
aI16
aI48
aI96
aI32
aI16
aI48
aI96
aI16
aI304
aI16
aI16
aI144
aI80
aI96
aI16
aI16
aI480
aI16
aI16
aI16
aI672
aI48
aI32
aI16
aI96
aI16
aI288
aI16
aI128
aI64
aI80
aI528
aI16
aI16
aI224
aI32
aI16
aI48
aI16
aI16
aI32
aI32
aI48
aI16
aI64
aI112
aI16
aI4016
aI128
aI16
aI32
aI32
aI16
aI208
aI32
aI64
aI32
aI32
aI16
aI16
aI16
aI16
aI32
aI16
aI304
aI16
aI16
aI112
aI128
aI16
aI64
aI16
aI16
aI80
aI16
aI16
aI16
aI16
aI48
aI64
aI112
aI16
aI320
aI368
aI16
aI16
aI16
aI32
aI16
aI112
aI144
aI16
aI32
aI16
aI16
aI32
aI496
aI32
aI80
aI16
aI96
aI2112
aI16
aI16
aI48
aI192
aI16
aI32
aI64
aI64
aI48
aI32
aI816
aI16
aI16
aI16
aI16
aI16
aI16
aI32
aI112
aI16
aI1696
aI16
aI32
aI16
aI64
aI80
aI80
aI64
aI16
aI16
aI16
aI16
aI160
aI432
aI32
aI16
aI1424
aI1152
aI16
aI720
aI16
aI16
aI32
aI80
aI32
aI16
aI16
aI16
aI32
aI16
aI16
aI112
aI16
aI16
aI48
aI112
aI16
aI48
aI464
aI560
aI112
aI128
aI112
aI16
aI16
aI16
aI16
aI16
aI32
aI32
aI16
aI160
aI32
aI16
aI16
aI1776
aI16
aI256
aI32
aI16
aI96
aI160
aI64
aI112
aI16
aI64
aI32
aI48
aI16
aI80
aI16
aI80
aI64
aI128
aI48
aI16
aI16
aI16
aI32
aI48
aI528
aI16
aI16
aI96
aI128
aI16
aI160
aI16
aI176
aI32
aI16
aI48
aI48
aI48
aI32
aI16
aI16
aI16
aI32
aI16
aI16
aI1200
aI48
aI32
aI32
aI16
aI16
aI112
aI464
aI96
aI64
aI16
aI32
aI288
aI16
aI16
aI416
aI256
aI384
aI144
aI1584
aI1792
aI16
aI1936
aI80
aI16
aI2176
aI48
aI16
aI112
aI16
aI48
aI16
aI48
aI304
aI48
aI32
aI16
aI16
aI4688
aI16
aI32
aI112
aI128
aI16
aI64
aI48
aI80
aI48
aI16
aI16
aI16
aI32
aI32
aI1024
aI16
aI322
aI80
aI304
aI16
aI16
aI16
aI976
aI32
aI64
aI112
aI16
aI16
aI32
aI16
aI64
aI64
aI64
aI16
aI16
aI256
aI32
aI16
aI16
aI16
aI48
aI48
aI320
aI96
aI16
aI736
aI272
aI48
aI32
aI32
aI32
aI112
aI192
aI32
aI16
aI16
aI16
aI16
aI48
aI16
aI96
aI16
aI16
aI16
aI16
aI304
aI16
aI16
aI16
aI48
aI16
aI656
aI16
aI16
aI16
aI48
aI80
aI176
aI32
aI32
aI16
aI32
aI16
aI880
aI256
aI880
aI48
aI16
aI16
aI16
aI16
aI208
aI32
aI32
aI1840
aI64
aI144
aI192
aI16
aI80
aI32
aI16
aI16
aI96
aI612
aI16
aI48
aI16
aI16
aI176
aI80
aI16
aI16
aI48
aI32
aI16
aI32
aI176
aI16
aI16
aI16
aI96
aI16
aI16
aI144
aI16
aI5170
aI16
aI16
aI192
aI16
aI272
aI16
aI96
aI1168
aI80
aI560
aI16
aI32
aI32
aI16
aI240
aI1825
aI1472
aI16
aI32
aI16
aI48
aI16
aI560
aI32
aI16
aI16
aI32
aI80
aI16
aI16
aI16
aI16
aI32
aI16
aI64
aI16
aI32
aI16
aI16
aI16
aI32
aI16
aI16
aI32
aI32
aI48
aI144
aI32
aI1952
aI80
aI64
aI32
aI256
aI64
aI16
aI48
aI32
aI1024
aI16
aI560
aI16
aI384
aI16
aI80
aI16
aI16
aI80
aI1056
aI16
aI64
aI32
aI16
aI2288
aI128
aI48
aI16
aI32
aI32
aI16
aI16
aI96
aI16
aI16
aI16
aI112
aI16
aI96
aI48
aI16
aI48
aI128
aI16
aI384
aI336
aI864
aI16
aI16
aI416
aI32
aI16
aI32
aI48
aI112
aI16
aI16
aI16
aI16
aI32
aI160
aI16
aI16
aI32
aI32
aI16
aI96
aI128
aI32
aI16
aI16
aI16
aI16
aI16
aI208
aI16
aI64
aI16
aI16
aI2592
aI32
aI16
aI32
aI112
aI48
aI96
aI32
aI16
aI16
aI16
aI16
aI32
aI32
aI64
aI576
aI48
aI16
aI16
aI48
aI32
aI32
aI160
aI64
aI16
aI2640
aI64
aI112
aI16
aI48
aI16
aI64
aI16
aI32
aI16
aI64
aI16
aI16
aI48
aI80
aI16
aI256
aI48
aI160
aI48
aI16
aI96
aI32
aI32
aI32
aI16
aI16
aI208
aI16
aI16
aI48
aI16
aI32
aI32
aI64
aI16
aI64
aI16
aI16
aI64
aI16
aI16
aI64
aI32
aI32
aI16
aI1520
aI32
aI16
aI16
aI32
aI96
aI32
aI16
aI16
aI32
aI16
aI16
aI16
aI32
aI32
aI80
aI32
aI32
aI1424
aI32
aI256
aI32
aI16
aI16
aI144
aI32
aI16
aI384
aI16
aI64
aI16
aI32
aI128
aI16
aI16
aI96
aI16
aI16
aI32
aI320
aI16
aI48
aI368
aI208
aI32
aI288
aI16
aI16
aI16
aI224
aI48
aI64
aI592
aI80
aI144
aI16
aI16
aI16
aI32
aI16
aI16
aI32
aI16
aI16
aI528
aI32
aI16
aI16
aI16
aI32
aI16
aI16
aI64
aI16
aI48
aI16
aI16
aI32
aI48
aI16
aI16
aI16
aI16
aI112
aI160
aI96
aI192
aI32
aI112
aI64
aI16
aI112
aI16
aI16
aI48
aI16
aI992
aI16
aI16
aI16
aI16
aI16
aI16
aI32
aI64
aI1088
aI64
aI80
aI32
aI1824
aI32
aI336
aI16
aI16
aI16
aI272
aI16
aI16
aI464
aI176
aI32
aI16
aI16
aI16
aI16
aI128
aI1152
aI16
aI16
aI16
aI16
aI16
aI80
aI16
aI32
aI48
aI16
aI464
aI16
aI48
aI16
aI32
aI16
aI16
aI176
aI32
aI192
aI48
aI32
aI16
aI16
aI16
aI16
aI16
aI16
aI96
aI16
aI96
aI48
aI16
aI16
aI16
aI96
aI80
aI16
aI16
aI96
aI16
aI448
aI64
aI16
aI16
aI32
aI32
aI256
aI128
aI16
aI9680
aI16
aI224
aI16
aI16
aI16
aI32
aI16
aI16
aI16
aI16
aI48
aI384
aI16
aI816
aI16
aI336
aI16
aI16
aI736
aI16
aI48
aI16
aI16
aI16
aI32
aI16
aI16
aI144
aI16
aI16
aI16
aI96
aI16
aI16
aI16
aI1296
aI16
aI16
aI32
aI2000
aI16
aI16
aI256
aI32
aI16
aI16
aI16
aI16
aI32
aI32
aI16
aI481
aI16
aI16
aI64
aI32
aI192
aI80
aI32
aI48
aI16
aI80
aI128
aI24051
aI32
aI352
aI16
aI144
aI624
aI1520
aI96
aI16
aI16
aI16
aI48
aI2
aI16
aI16
aI16
aI224
aI16
aI16
aI320
aI80
aI16
aI256
aI96
aI96
aI144
aI400
aI224
aI64
aI10800
aI288
aI11248
aI224
aI18576
aI16
aI21523
aI32
aI96
aI16
aI16
aI48
aI16
aI64
aI16
aI32
aI16
aI224
aI16
aI16
aI48
aI64
aI192
aI112
aI48
aI32
aI16
aI16
aI32
aI96
aI96
aI64
aI112
aI256
aI16
aI16
aI32
aI16
aI16
aI144
aI48
aI80
aI16
aI48
aI16
aI16
aI800
aI16
aI16
aI16
aI16
aI64
aI32
aI960
aI80
aI32
aI448
aI128
aI112
aI16
aI16
aI64
aI16
aI32
aI16
aI16
aI16
aI48
aI16
aI721
aI32
aI64
aI288
aI16
aI64
aI48
aI16
aI16
aI113781
aI112
aI16
aI32
aI48
aI32
aI32
aI112
aI128
aI224
aI80
aI32
aI16
aI32
aI240
aI64
aI240
aI16
aI16
aI48
aI16
aI16
aI48
aI32
aI16
aI32
aI672
aI112
aI32
aI16
aI80
aI96
aI96
aI16
aI160
aI16
aI48
aI64
aI144
aI16
aI368
aI816
aI224
aI32
aI16
aI16
aI16
aI16
aI16
aI176
aI672
aI32
aI16
aI48
aI672
aI32
aI48
aI480
aI16
aI880
aI80
aI1552
aI48
aI848
aI160
aI16
aI16
aI16
aI96
aI16
aI16
aI769
aI32
aI48
aI32
aI96
aI576
aI48
aI16
aI48
aI48
aI48
aI16
aI2064
aI16
aI16
aI32
aI32
aI304
aI32
aI336
aI16
aI608
aI112
aI992
aI16
aI32
aI48
aI16
aI832
aI32
aI32
aI288
aI976
aI64
aI32
aI32
aI16
aI32
aI64
aI16
aI16
aI576
aI16
aI240
aI16
aI32
aI16
aI160
aI144
aI16
aI16
aI80
aI64
aI16
aI512
aI16
aI6001
aI32
aI128
aI48
aI16
aI32
aI3457
aI16
aI48
aI432
aI32
aI16
aI32
aI16
aI16
aI16
aI16
aI240
aI448
aI16
aI192
aI16
aI64
aI32
aI32
aI816
aI288
aI464
aI32
aI32
aI48
aI16
aI96
aI48
aI176
aI32
aI16
aI16
aI288
aI16
aI400
aI784
aI32
aI16
aI16
aI176
aI16
aI32
aI96
aI32
aI48
aI16
aI16
aI224
aI128
aI240
aI48
aI32
aI16
aI16
aI16
aI16
aI480
aI32
aI16
aI32
aI1232
aI16
aI672
aI16
aI16
aI48
aI32
aI32
aI16
aI32
aI64
aI16
aI32
aI145
aI16
aI32
aI16
aI64
aI304
aI16
aI16
aI48
aI16
aI48
aI16
aI16
aI16
aI32
aI16
aI16
aI1648
aI16
aI32
aI624
aI832
aI160
aI16
aI160
aI5728
aI16
aI16
aI16
aI16
aI272
aI1
aI16
aI32
aI16
aI32
aI16
aI64
aI16
aI32
aI32
aI16
aI192
aI144
aI16
aI16
aI32
aI48
aI16
aI32
aI16
aI16
aI16
aI16
aI16
aI528
aI16
aI16
aI16
aI16
aI96
aI16
aI32
aI656
aI32
aI16
aI2000
aI16
aI112
aI16
aI32
aI512
aI16
aI32
aI48
aI80
aI176
aI16
aI640
aI16
aI32
aI64
aI32
aI16
aI16
aI16
aI32
aI32
aI48
aI16
aI16
aI112
aI16
aI64
aI16
aI48
aI16
aI16
aI144
aI16
aI16
aI16
aI48
aI16
aI48
aI16
aI16
aI16
aI16
aI256
aI32
aI48
aI16
aI16
aI48
aI496
aI32
aI48
aI16
aI32
aI560
aI48
aI16
aI16
aI32
aI1840
aI32
aI32
aI16
aI32
aI416
aI64
aI16
aI16
aI48
aI32
aI16
aI16
aI16
aI16
aI80
aI16
aI16
aI16
aI16
aI96
aI48
aI80
aI208
aI16
aI16
aI400
aI32
aI96
aI16
aI96
aI16
aI32
aI16
aI32
aI16
aI16
aI48
aI16
aI16
aI32
aI32
aI96
aI224
aI16
aI32
aI176
aI16
aI32
aI16
aI16
aI32
aI32
aI16
aI16
aI16
aI1200
aI16
aI176
aI64
aI16
aI80
aI4864
aI16
aI320
aI288
aI16
aI352
aI16
aI16
aI16
aI16
aI640
aI32
aI16
aI16
aI64
aI624
aI16
aI16
aI48
aI80
aI16
aI1904
aI64
aI16
aI16
aI16
aI80
aI16
aI16
aI16
aI16
aI16
aI640
aI16
aI112
aI368
aI16
aI16
aI112
aI16
aI112
aI48
aI96
aI272
aI16
aI64
aI16
aI16
aI16
aI48
aI32
aI16
aI16
aI48
aI272
aI16
aI16
aI32
aI16
aI16
aI16
aI16
aI352
aI16
aI16
aI96
aI16
aI16
aI48
aI112
aI96
aI112
aI16
aI432
aI32
aI16
aI16
aI64
aI64
aI32
aI16
aI16
aI128
aI80
aI16
aI16
aI80
aI144
aI16
aI96
aI48
aI224
aI176
aI16
aI16
aI16
aI32
aI96
aI48
aI16
aI16
aI16
aI16
aI16
aI176
aI16
aI32
aI32
aI1216
aI64
aI16
aI16
aI16
aI48
aI16
aI80
aI48
aI3760
aI16
aI112
aI208
aI48
aI32
aI32
aI16
aI16
aI16
aI16
aI1504
aI16
aI32
aI16
aI80
aI48
aI480
aI16
aI16
aI64
aI80
aI16
aI224
aI16
aI48
aI16
aI16
aI16
aI224
aI80
aI32
aI128
aI16
aI48
aI4112
aI16
aI16
aI16
aI16
aI48
aI32
aI112
aI16
aI16
aI128
aI32
aI16
aI16
aI336
aI1072
aI32
aI16
aI32
aI16
aI112
aI16
aI80
aI16
aI384
aI16
aI32
aI16
aI32
aI32
aI16
aI288
aI176
aI272
aI64
aI48
aI16
aI352
aI48
aI32
aI16
aI1280
aI16
aI16
aI16
aI32
aI16
aI16
aI496
aI32
aI32
aI32
aI144
aI32
aI48
aI16
aI16
aI64
aI16
aI48
aI176
aI240
aI96
aI320
aI48
aI1760
aI32
aI48
aI64
aI96
aI64
aI16
aI208
aI96
aI16
aI96
aI96
aI80
aI96
aI64
aI32
aI64
aI144
aI80
aI16
aI16
aI16
aI16
aI112
aI64
aI32
aI16
aI32
aI64
aI64
aI64
aI16
aI816
aI16
aI160
aI16
aI96
aI64
aI16
aI48
aI224
aI16
aI144
aI352
aI16
aI16
aI208
aI176
aI32
aI496
aI16
aI16
aI256
aI16
aI528
aI64
aI16
aI673
aI32
aI16
aI16
aI16
aI256
aI48
aI80
aI16
aI16
aI48
aI32
aI32
aI32
aI16
aI32
aI48
aI32
aI16
aI128
aI400
aI16
aI16
aI48
aI112
aI64
aI176
aI304
aI16
aI48
aI16
aI240
aI32
aI16
aI80
aI32
aI384
aI32
aI480
aI240
aI16
aI528
aI16
aI48
aI16
aI16
aI32
aI16
aI32
aI353
aI368
aI64
aI48
aI1344
aI16
aI32
aI16
aI96
aI512
aI289
aI32
aI16
aI16
aI32
aI16
aI96
aI16
aI800
aI304
aI16
aI16
aI32
aI80
aI16
aI48
aI32
aI16
aI48
aI16
aI160
aI32
aI944
aI16
aI32
aI16
aI912
aI48
aI25313
aI16
aI112
aI16
aI96
aI16
aI2944
aI96
aI48
aI32
aI128
aI32
aI416
aI19376
aI16
aI16
aI48
aI976
aI32
aI32
aI16
aI32
aI64
aI16
aI16
aI32
aI80
aI16
aI224
aI64
aI16
aI144
aI3616
aI80
aI16
aI432
aI128
aI32
aI32
aI16
aI240
aI16
aI32
aI416
aI176
aI16
aI16
aI16
aI32
aI64
aI96
aI16
aI80
aI32
aI256
aI32
aI32
aI80
aI16
aI16
aI592
aI192
aI16
aI800
aI96
aI480
aI16
aI16
aI432
aI16
aI176
aI5536
aI4420
aI64
aI16
aI48
aI64
aI976
aI16
aI64
aI16
aI144
aI192
aI16
aI16
aI32
aI144
aI32
aI16
aI80
aI16
aI272
aI48
aI16
aI48
aI16
aI16
aI32
aI32
aI32
aI256
aI16
aI16
aI16
aI16
aI16
aI48
aI32
aI32
aI16
aI16
aI128
aI96
aI16
aI16
aI32
aI16
aI48
aI80
aI32
aI128
aI32
aI48
aI16
aI32
aI16
aI32
aI16
aI96
aI32
aI16
aI48
aI32
aI16
aI32
aI16
aI48
aI16
aI16
aI96
aI32
aI80
aI256
aI48
aI32
aI528
aI32
aI48
aI80
aI592
aI16
aI16
aI48
aI16
aI16
aI16
aI16
aI32
aI48
aI16
aI16
aI96
aI144
aI16
aI16
aI32
aI160
aI336
aI2048
aI112
aI16
aI16
aI160
aI144
aI16
aI32
aI112
aI32
aI96
aI48
aI32
aI48
aI512
aI16
aI16
aI64
aI16
aI96
aI384
aI16
aI32
aI112
aI64
aI48
aI48
aI2384
aI48
aI32
aI48
aI960
aI16
aI96
aI32
aI96
aI16
aI16
aI144
aI64
aI16
aI32
aI16
aI16
aI16
aI64
aI48
aI16
aI160
aI32
aI16
aI32
aI16
aI592
aI16
aI16
aI32
aI32
aI48
aI32
aI336
aI16
aI16
aI48
aI96
aI48
aI48
aI16
aI32
aI32
aI256
aI608
aI48
aI16
aI176
aI288
aI16
aI16
aI32
aI16
aI48
aI96
aI4592
aI80
aI64
aI16
aI16
aI16
aI160
aI16
aI1104
aI112
aI32
aI16
aI48
aI416
aI289
aI32
aI16
aI16
aI160
aI16
aI80
aI320
aI96
aI384
aI48
aI48
aI32
aI16
aI16
aI16
aI16
aI16
aI32
aI16
aI161
aI128
aI16
aI48
aI16
aI160
aI32
aI16
aI16
aI656
aI3168
aI64
aI48
aI32
aI32
aI64
aI32
aI16
aI16
aI16
aI16
aI16
aI16
aI64
aI32
aI32
aI48
aI16
aI16
aI96
aI48
aI80
aI48
aI16
aI176
aI16
aI16
aI16
aI16
aI1280
aI160
aI16
aI27842
aI176
aI96
aI48
aI64
aI48
aI73042
aI32
aI16
aI16
aI16
aI32
aI16
aI1440
aI16
aI32
aI16
aI176
aI16
aI32
aI1168
aI16
aI32
aI16
aI16
aI16
aI16
aI80
aI16
aI16
aI16
aI16
aI144
aI32
aI16
aI32
aI16
aI48
aI16
aI16
aI32
aI16
aI128
aI32
aI16
aI16
aI16
aI16
aI16
aI32
aI48
aI80
aI32
aI16
aI80
aI32
aI64
aI64
aI160
aI16
aI192
aI64
aI80
aI64
aI144
aI976
aI192
aI16
aI16
aI2144
aI16
aI112
aI48
aI1040
aI32
aI16
aI144
aI16
aI32
aI16
aI64
aI80
aI16
aI16
aI48
aI16
aI16
aI32
aI16
aI32
aI16
aI16
aI144
aI32
aI64
aI16
aI144
aI16
aI16
aI128
aI48
aI48
aI16
aI96
aI16
aI16
aI112
aI96
aI176
aI16
aI16
aI16
aI16
aI16
aI16
aI64
aI16
aI32
aI16
aI32
aI16
aI16
aI16
aI32
aI16
aI800
aI16
aI16
aI16
aI80
aI224
aI16
aI64
aI176
aI16
aI16
aI272
aI16
aI16
aI16
aI16
aI16
aI16
aI16
aI32
aI16
aI16
aI80
aI16
aI32
aI16
aI16
aI96
aI16
aI16
aI32
aI928
aI16
aI16
aI480
aI16
aI16
aI32
aI16
aI3952
aI1776
aI16
aI80
aI16
aI16
aI1376
aI16
aI16
aI16
aI16
aI16
aI16
aI16
aI16
aI160
aI160
aI16
aI32
aI16
aI48
aI16
aI16
aI16
aI400
aI80
aI32
aI16
aI1648
aI48
aI16
aI96
aI1584
aI16
aI16
aI16
aI16
aI16
aI176
aI32
aI16
aI224
aI16
aI16
aI384
aI32
aI192
aI80
aI32
aI16
aI192
aI112
aI32
aI48
aI32
aI16
aI16
aI64
aI80
aI16
aI64
aI16
aI16
aI48
aI16
aI16
aI16
aI32
aI224
aI16
aI32
aI80
aI32
aI16
aI16
aI160
aI16
aI48
aI704
aI48
aI32
aI48
aI16
aI64
aI96
aI32
aI16
aI48
aI448
aI16
aI32
aI112
aI16
aI48
aI176
aI128
aI288
aI96
aI16
aI16
aI16
aI16
aI96
aI32
aI32
aI16
aI64
aI16
aI288
aI400
aI32
aI16
aI16
aI96
aI16
aI256
aI48
aI32
aI64
aI16
aI80
aI16
aI32
aI688
aI32
aI16
aI32
aI32
aI64
aI48
aI64
aI16
aI256
aI16
aI16
aI5376
aI16
aI320
aI48
aI80
aI16
aI80
aI48
aI48
aI1248
aI144
aI64
aI16
aI32
aI224
aI192
aI48
aI16
aI16
aI32
aI16
aI16
aI16
aI16
aI144
aI32
aI16
aI16
aI16
aI48
aI240
aI320
aI16
aI48
aI16
aI432
aI32
aI64
aI80
aI16
aI240
aI208
aI96
aI16
aI16
aI112
aI16
aI48
aI16
aI32
aI80
aI32
aI16
aI16
aI48
aI32
aI96
aI32
aI240
aI16
aI32
aI16
aI16
aI32
aI224
aI32
aI160
aI64
aI48
aI80
aI16
aI16
aI2674
aI32
aI160
aI16
aI16
aI16
aI112
aI48
aI656
aI16
aI16
aI16
aI64
aI48
aI16
aI48
aI16
aI48
aI32
aI16
aI16
aI16
aI400
aI32
aI64
aI1696
aI16
aI16
aI48
aI16
aI16
aI32
aI16
aI16
aI208
aI112
aI16
aI16
aI128
aI16
aI32
aI48
aI16
aI16
aI16
aI32
aI16
aI16
aI16
aI32
aI32
aI16
aI80
aI16
aI176
aI80
aI32
aI16
aI16
aI16
aI48
aI16
aI16
aI32
aI32
aI48
aI32
aI16
aI16
aI32
aI16
aI96
aI16
aI160
aI16
aI16
aI16
aI16
aI48
aI32
aI32
aI16
aI48
aI32
aI128
aI480
aI32
aI48
aI80
aI16
aI16
aI64
aI16
aI32
aI32
aI192
aI48
aI336
aI16
aI16
aI16
aI176
aI16
aI32
aI128
aI368
aI16
aI96
aI816
aI16
aI16
aI32
aI16
aI32
aI48
aI16
aI16
aI16
aI16
aI96
aI16
aI160
aI32
aI32
aI1296
aI16
aI16
aI16
aI16
aI80
aI16
aI16
aI48
aI16
aI32
aI16
aI16
aI32
aI32
aI16
aI32
aI16
aI16
aI16
aI16
aI16
aI48
aI1376
aI32
aI1104
aI16
aI16
aI208
aI48
aI240
aI16
aI48
aI64
aI16
aI32
aI16
aI16
aI160
aI96
aI16
aI32
aI16
aI16
aI448
aI1216
aI96
aI80
aI16
aI16
aI64
aI32
aI528
aI48
aI752
aI64
aI32
aI16
aI16
aI48
aI32
aI16
aI16
aI160
aI16
aI16
aI688
aI16
aI80
aI832
aI32
aI32
aI16
aI96
aI16
aI16
aI32
aI16
aI144
aI16
aI32
aI96
aI80
aI16
aI64
aI64
aI96
aI16
aI16
aI144
aI256
aI32
aI1632
aI32
aI16
aI32
aI16
aI16
aI16
aI64
aI80
aI2000
aI64
aI16
aI32
aI112
aI32
aI48
aI16
aI80
aI16
aI32
aI208
aI16
aI112
aI64
aI48
aI112
aI16
aI288
aI64
aI16
aI16
aI32
aI48
aI304
aI32
aI96
aI240
aI16
aI16
aI16
aI16
aI256
aI160
aI16
aI32
aI16
aI80
aI48
aI48
aI16
aI48
aI208
aI32
aI64
aI16
aI16
aI80
aI16
aI16
aI32
aI32
aI16
aI112
aI16
aI224
aI48
aI16
aI16
aI784
aI16
aI384
aI16
aI16
aI16
aI2624
aI16
aI176
aI16
aI16
aI16
aI32
aI112
aI64
aI16
aI320
aI48
aI48
aI80
aI144
aI32
aI16
aI16
aI688
aI16
aI16
aI16
aI16
aI16
aI16
aI160
aI224
aI64
aI16
aI16
aI16
aI32
aI48
aI16
aI32
aI144
aI16
aI80
aI16
aI144
aI80
aI32
aI80
aI16
aI16
aI16
aI960
aI336
aI48
aI256
aI704
aI16
aI16
aI16
aI16
aI384
aI16
aI16
aI160
aI16
aI32
aI16
aI32
aI384
aI848
aI16
aI16
aI48
aI48
aI16
aI80
aI32
aI16
aI16
aI48
aI64
aI32
aI16
aI16
aI208
aI32
aI16
aI48
aI16
aI16
aI64
aI16
aI32
aI96
aI112
aI96
aI16
aI16
aI16
aI16
aI144
aI96
aI16
aI80
aI192
aI32
aI16
aI16
aI16
aI16
aI32
aI16
aI16
aI112
aI16
aI16
aI32
aI48
aI32
aI16
aI16
aI848
aI32
aI176
aI16
aI48
aI48
aI16
aI16
aI32
aI16
aI32
aI16
aI16
aI80
aI48
aI48
aI128
aI224
aI16
aI16
aI32
aI16
aI32
aI16
aI16
aI464
aI48
aI16
aI16
aI16
aI432
aI80
aI16
aI80
aI16
aI16
aI16
aI16
aI16
aI16
aI288
aI32
aI48
aI16
aI80
aI96
aI16
aI16
aI16
aI864
aI1152
aI48
aI48
aI128
aI16
aI16
aI48
aI16
aI32
aI368
aI64
aI128
aI32
aI656
aI64
aI1136
aI16
aI32
aI16
aI16
aI64
aI160
aI16
aI16
aI16
aI80
aI16
aI16
aI48
aI32
aI16
aI208
aI16
aI16
aI32
aI16
aI736
aI16
aI16
aI16
aI32
aI48
aI32
aI448
aI64
aI112
aI384
aI1008
aI80
aI2961
aI32
aI16
aI16
aI16
aI16
aI16
aI128
aI48
aI32
aI64
aI32
aI16
aI16
aI16
aI16
aI352
aI16
aI16
aI32
aI64
aI224
aI16
aI112
aI16
aI16
aI48
aI16
aI64
aI16
aI16
aI64
aI176
aI160
aI2592
aI240
aI16
aI16
aI16
aI96
aI64
aI16
aI16
aI384
aI64
aI80
aI160
aI32
aI32
aI32
aI16
aI2464
aI64
aI48
aI48
aI16
aI288
aI16
aI16
aI368
aI32
aI16
aI368
aI16
aI16
aI368
aI64
aI48
aI48
aI64
aI592
aI16
aI16
aI32
aI512
aI16
aI2320
aI64
aI16
aI16
aI16
aI2192
aI160
aI48
aI32
aI16
aI48
aI16
aI112
aI784
aI48
aI96
aI16
aI112
aI48
aI16
aI32
aI272
aI16
aI16
aI448
aI16
aI16
aI176
aI16
aI16
aI48
aI256
aI2304
aI2944
aI160
aI32
aI32
aI16
aI16
aI480
aI64
aI16
aI32
aI32
aI7520
aI16
aI16
aI16
aI464
aI16
aI16
aI48
aI16
aI1232
aI16
aI16
aI128
aI16
aI128
aI64
aI32
aI32
aI336
aI16
aI48
aI80
aI16
aI16
aI32
aI16
aI48
aI16
aI32
aI144
aI160
aI16
aI32
aI16
aI480
aI16
aI48
aI16
aI32
aI16
aI192
aI112
aI16
aI16
aI128
aI32
aI16
aI16
aI64
aI48
aI384
aI16
aI16
aI16
aI16
aI16
aI16
aI16
aI16
aI32
aI48
aI80
aI48
aI16
aI32
aI432
aI16
aI16
aI80
aI48
aI32
aI80
aI48
aI16
aI16
aI16
aI16
aI64
aI16
aI16
aI32
aI96
aI1152
aI16
aI32
aI512
aI48
aI16
aI16
aI176
aI48
aI32
aI672
aI176
aI1280
aI16
aI2544
aI64
aI32
aI16
aI48
aI64
aI160
aI16
aI32
aI16
aI16
aI16
aI48
aI16
aI16
aI32
aI16
aI16
aI192
aI16
aI256
aI48
aI48
aI16
aI32
aI208
aI16
aI48
aI160
aI16
aI160
aI16
aI16
aI16
aI16
aI64
aI64
aI16
aI16
aI32
aI16
aI48
aI32
aI112
aI160
aI16
aI144
aI16
aI96
aI64
aI16
aI16
aI16
aI16
aI352
aI32
aI32
aI16
aI16
aI16
aI16
aI48
aI16
aI96
aI208
aI224
aI32
aI16
aI512
aI64
aI80
aI192
aI48
aI96
aI48
aI32
aI16
aI16
aI96
aI80
aI16
aI32
aI16
aI16
aI64
aI16
aI16
aI48
aI144
aI272
aI16
aI16
aI32
aI80
aI16
aI16
aI96
aI16
aI192
aI16
aI16
aI16
aI16
aI192
aI16
aI16
aI16
aI16
aI16
aI80
aI16
aI32
aI48
aI208
aI16
aI16
aI6480
aI32
aI32
aI64
aI16
aI16
aI208
aI32
aI64
aI304
aI112
aI128
aI16
aI32
aI112
aI256
aI32
aI16
aI16
aI16
aI96
aI48
aI48
aI16
aI16
aI16
aI32
aI16
aI16
aI16
aI32
aI48
aI272
aI16
aI16
aI32
aI48
aI16
aI48
aI16
aI368
aI16
aI256
aI16
aI32
aI32
aI32
aI448
aI32
aI32
aI16
aI32
aI16
aI16
aI320
aI81
aI16
aI32
aI16
aI24672
aI592
aI576
aI32
aI32
aI96
aI16
aI32
aI192
aI16
aI560
aI16
aI16
aI48
aI192
aI2032
aI128
aI80
aI160
aI16
aI16
aI32
aI32
aI32
aI16
aI16
aI128
aI16
aI32
aI64
aI80
aI496
aI48
aI32
aI32
aI64
aI32
aI16
aI16
aI16
aI16
aI16
aI32
aI16
aI192
aI32
aI336
aI16
aI16
aI16
aI16
aI96
aI64
aI64
aI16
aI16
aI48
aI16
aI16
aI208
aI16
aI16
aI32
aI496
aI16
aI32
aI16
aI32
aI32
aI16
aI80
aI16
aI10640
aI80
aI32
aI16
aI944
aI16
aI64
aI16
aI16
aI112
aI16
aI80
aI368
aI16
aI16
aI112
aI16
aI32
aI80
aI16
aI16
aI32
aI16
aI96
aI16
aI16
aI80
aI16
aI48
aI656
aI48
aI96
aI16
aI96
aI176
aI32
aI16
aI32
aI32
aI16
aI16
aI32
aI32
aI400
aI16
aI368
aI16
aI16
aI64
aI240
aI64
aI128
aI16
aI64
aI16
aI32
aI48
aI48
aI144
aI16
aI48
aI64
aI16
aI96
aI368
aI32
aI32
aI2673
aI32
aI16
aI173782
aI16
aI48
aI16
aI112
aI32
aI128
aI32
aI16
aI112
aI16
aI48
aI2784
aI16
aI128
aI16
aI16
aI208
aI16
aI64
aI96
aI48
aI48
aI16
aI16
aI48
aI448
aI16
aI752
aI160
aI32
aI16
aI32
aI16
aI16
aI16
aI16
aI96
aI16
aI208
aI96
aI48
aI16
aI32
aI32
aI16
aI16
aI32
aI16
aI48
aI16
aI480
aI16
aI16
aI416
aI32
aI624
aI64
aI160
aI16
aI32
aI64
aI64
aI112
aI80
aI32
aI16
aI304
aI32
aI32
aI32
aI16
aI32
aI16
aI16
aI32
aI16
aI1600
aI16
aI336
aI16
aI80
aI32
aI16
aI352
aI32
aI32
aI16
aI32
aI16
aI1040
aI32
aI16
aI16
aI112
aI64
aI32
aI32
aI32
aI496
aI304
aI16
aI16
aI48
aI16
aI16
aI640
aI96
aI16
aI80
aI16
aI48
aI16
aI16
aI16
aI32
aI16
aI64
aI16
aI16
aI32
aI16
aI16
aI48
aI32
aI16
aI16
aI48
aI16
aI48
aI496
aI320
aI16
aI16
aI800
aI272
aI16
aI1344
aI32
aI144
aI16
aI9280
aI48
aI144
aI256
aI176
aI208
aI16
aI16
aI32
aI32
aI80
aI304
aI16
aI64
aI128
aI16
aI16
aI176
aI16
aI80
aI80
aI16
aI16
aI32
aI80
aI32
aI16
aI48
aI112
aI80
aI112
aI32
aI16
aI16
aI16
aI112
aI16
aI80
aI16
aI48
aI16
aI32
aI16
aI16
aI832
aI16
aI32
aI16
aI32
aI32
aI912
aI16
aI225
aI416
aI16
aI16
aI32
aI176
aI1408
aI32
aI32
aI16
aI32
aI32
aI48
aI32
aI16
aI16
aI48
aI16
aI16
aI32
aI624
aI16
aI16
aI32
aI112
aI32
aI32
aI64
aI48
aI64
aI16
aI48
aI16
aI32
aI1536
aI32
aI32
aI32
aI16
aI64
aI16
aI32
aI16
aI16
aI16
aI16
aI32
aI16
aI208
aI16
aI16
aI320
aI32
aI48
aI16
aI16
aI32
aI16
aI32
aI16
aI192
aI544
aI144
aI288
aI16
aI48
aI16
aI32
aI48
aI144
aI32
aI32
aI16
aI64
aI16
aI160
aI96
aI16
aI16
aI320
aI16
aI256
aI16
aI16
aI160
aI32
aI16
aI48
aI16
aI80
aI1792
aI16
aI16
aI48
aI32
aI16
aI64
aI32
aI384
aI48
aI384
aI32
aI48
aI16
aI16
aI16
aI16
aI16
aI32
aI16
aI16
aI272
aI16
aI16
aI16
aI16
aI16
aI48
aI48
aI48
aI16
aI16
aI16
aI16
aI80
aI32
aI592
aI2416
aI32
aI352
aI48
aI32
aI16
aI16
aI48
aI112
aI48
aI16
aI32
aI80
aI16
aI16
aI16
aI16
aI16
aI48
aI16
aI16
aI16
aI32
aI144
aI64
aI16
aI16
aI16
aI16
aI16
aI32
aI5024
aI384
aI64
aI32
aI64
aI64
aI32
aI272
aI48
aI16
aI16
aI32
aI16
aI16
aI32
aI80
aI64
aI16
aI160
aI16
aI48
aI32
aI16
aI32
aI80
aI16
aI80
aI16
aI48
aI16
aI16
aI336
aI256
aI16
aI48
aI16
aI16
aI8449
aI64
aI48
aI32
aI16
aI32
aI96
aI144
aI144
aI1169
aI48
aI80
aI144
aI304
aI80
aI16
aI16
aI16
aI80
aI192
aI32
aI32
aI16
aI192
aI32
aI832
aI656
aI16
aI192
aI16
aI112
aI16
aI192
aI832
aI16
aI32
aI16
aI32
aI128
aI768
aI176
aI144
aI16
aI128
aI64
aI352
aI16
aI352
aI16
aI32
aI32
aI464
aI16
aI144
aI80
aI32
aI16
aI16
aI80
aI64
aI240
aI16
aI32
aI80
aI32
aI16
aI241
aI256
aI32
aI32
aI144
aI32
aI96
aI2144
aI16
aI32
aI16
aI80
aI16
aI16
aI256
aI48
aI16
aI16
aI352
aI32
aI96
aI16
aI16
aI48
aI48
aI32
aI448
aI16
aI32
aI16
aI16
aI16
aI16
aI64
aI48
aI16
aI192
aI64
aI400
aI32
aI128
aI2928
aI160
aI1200
aI256
aI32
aI32
aI16
aI16
aI32
aI1200
aI240
aI16
aI16
aI16
aI48
aI16
aI16
aI32
aI32
aI16
aI16
aI16
aI16
aI688
aI208
aI48
aI32
aI64
aI32
aI16
aI544
aI64
aI64
aI160
aI16
aI528
aI160
aI48
aI16
aI128
aI1920
aI256
aI144
aI32
aI48
aI224
aI208
aI176
aI144
aI144
aI32
aI448
aI16
aI16
aI32
aI16
aI929
aI32
aI16
aI432
aI16
aI256
aI32
aI32
aI128
aI64
aI128
aI48
aI32
aI16
aI32
aI96
aI32
aI96
aI112
aI64
aI112
aI224
aI32
aI32
aI528
aI16
aI192
aI16
aI16
aI224
aI32
aI48
aI32
aI16
aI16
aI16
aI16
aI16
aI64
aI496
aI32
aI48
aI1680
aI208
aI32
aI96
aI16
aI385
aI192
aI288
aI16
aI16
aI16
aI224
aI16
aI80
aI16
aI32
aI16
aI16
aI16
aI176
aI16
aI96
aI34736
aI32
aI16
aI48
aI16
aI48
aI16
aI80
aI128
aI48
aI64
aI3264
aI16
aI32
aI16
aI16
aI64
aI16
aI48
aI32
aI16
aI16
aI80
aI16
aI16
aI80
aI16
aI144
aI16
aI16
aI16
aI240
aI32
aI16
aI240
aI64
aI48
aI32
aI16
aI144
aI16
aI16
aI32
aI16
aI192
aI32
aI1136
aI48
aI16
aI16
aI160
aI32
aI1265
aI48
aI32
aI512
aI16
aI32
aI3184
aI16
aI32
aI32
aI32
aI32
aI16
aI64
aI1504
aI16
aI272
aI144
aI80
aI16
aI64
aI16
aI16
aI16
aI16
aI48
aI32
aI96
aI32
aI16
aI112
aI16
aI160
aI896
aI32
aI32
aI16
aI80
aI32
aI32
aI32
aI64
aI48
aI16
aI16
aI16
aI48
aI32
aI32
aI32
aI128
aI144
aI16
aI48
aI16
aI3632
aI32
aI64
aI240
aI48
aI80
aI224
aI16
aI16
aI128
aI560
aI16
aI16
aI32
aI32
aI16
aI16
aI32
aI16
aI48
aI112
aI48
aI16
aI16
aI16
aI48
aI16
aI16
aI32
aI48
aI65
aI16
aI16
aI32
aI128
aI16
aI64
aI16
aI16
aI1152
aI16
aI1632
aI32
aI96
aI48
aI16
aI48
aI16
aI1200
aI16
aI16
aI16
aI96
aI80
aI32
aI16
aI32
aI16
aI400
aI16
aI32
aI16
aI32
aI112
aI48
aI32
aI48
aI256
aI240
aI16
aI32
aI64
aI16
aI16
aI32
aI352
aI64
aI48
aI64
aI16
aI208
aI16
aI16
aI257
aI48
aI32
aI80
aI16
aI32
aI192
aI16
aI112
aI16
aI48
aI112
aI16
aI16
aI160
aI16
aI16
aI16
aI16
aI176
aI96
aI16
aI16
aI32
aI16
aI320
aI5536
aI16
aI16
aI16
aI48
aI16
aI16
aI80
aI128
aI16
aI16
aI16
aI64
aI64
aI32
aI16
aI16
aI32
aI48
aI32
aI48
aI32
aI32
aI80
aI32
aI496
aI64
aI480
aI16
aI16
aI16
aI160
aI32
aI48
aI48
aI960
aI32
aI96
aI48
aI80
aI16
aI16
aI16
aI48
aI16
aI16
aI16
aI48
aI752
aI32
aI16
aI32
aI80
aI32
aI16
aI208
aI16
aI16
aI288
aI16
aI16
aI16
aI176
aI16
aI32
aI112
aI16
aI16
aI16
aI64
aI16
aI336
aI224
aI32
aI16
aI32
aI32
aI144
aI16
aI96
aI64
aI16
aI16
aI48
aI16
aI32
aI80
aI192
aI688
aI96
aI48
aI16
aI16
aI768
aI16
aI32
aI32
aI32
aI32
aI32
aI1200
aI112
aI320
aI64
aI48
aI32
aI64
aI64
aI32
aI256
aI16
aI80
aI16
aI16
aI400
aI16
aI96
aI16
aI144
aI32
aI16
aI16
aI16
aI16
aI48
aI48
aI32
aI32
aI16
aI336
aI96
aI16
aI64
aI16
aI32
aI16
aI16
aI16
aI112
aI16
aI64
aI832
aI16
aI32
aI16
aI208
aI4272
aI112
aI16
aI32
aI16
aI16
aI16
aI352
aI16
aI96
aI160
aI64
aI32
aI160
aI16
aI480
aI16
aI32
aI64
aI32
aI16
aI32
aI16
aI208
aI64
aI96
aI160
aI16
aI80
aI368
aI64
aI80
aI16
aI16
aI192
aI48
aI16
aI128
aI16130
aI144
aI160
aI81
aI4864
aI160
aI1872
aI16
aI32
aI16
aI16
aI32
aI464
aI80
aI576
aI576
aI48
aI16
aI48
aI16
aI640
aI80
aI48
aI16
aI16
aI32
aI16
aI672
aI1040
aI32
aI32
aI16
aI96
aI368
aI16
aI16
aI32
aI16
aI16
aI80
aI32
aI16
aI128
aI32
aI16
aI16
aI16
aI16
aI144
aI976
aI16
aI16
aI240
aI432
aI80
aI16
aI32
aI32
aI16
aI16
aI32
aI160
aI1744
aI16
aI16
aI16
aI160
aI48
aI36980
aI16
aI16
aI48
aI16
aI16
aI32
aI16
aI16
aI16
aI48
aI48
aI192
aI512
aI448
aI32
aI16
aI16
aI16
aI80
aI32
aI32
aI32
aI16
aI16
aI16
aI16
aI48
aI32
aI16
aI16
aI832
aI16
aI256
aI160
aI80
aI48
aI64
aI48
aI80
aI64
aI16
aI48
aI64
aI64
aI80
aI80
aI16
aI16
aI32
aI192
aI32
aI16
aI16
aI16
aI608
aI80
aI2336
aI16
aI80
aI160
aI48
aI96
aI16
aI16
aI256
aI80
aI16
aI48
aI16
aI64
aI16
aI32
aI32
aI16
aI16
aI16
aI48
aI16
aI16
aI16
aI16
aI48
aI16
aI16
aI16
aI16
aI64
aI16
aI400
aI80
aI16
aI16
aI64
aI32
aI16
aI240
aI16
aI256
aI32
aI16
aI16
aI16
aI32
aI32
aI32
aI208
aI16
aI48
aI16
aI288
aI16
aI464
aI432
aI48
aI16
aI16
aI272
aI16
aI64
aI144
aI16
aI48
aI32
aI1136
aI16
aI16
aI208
aI16
aI1120
aI32
aI16
aI48
aI16
aI32
aI32
aI16
aI16
aI144
aI32
aI16
aI16
aI1248
aI16
aI32
aI32
aI64
aI64
aI16
aI432
aI16
aI128
aI16
aI336
aI16
aI16
aI112
aI480
aI64
aI96
aI16
aI16
aI64
aI16
aI80
aI1072
aI16
aI48
aI80
aI16
aI16
aI160
aI32
aI32
aI48
aI32
aI80
aI32
aI128
aI64
aI32
aI32
aI224
aI16
aI16
aI16
aI112
aI16
aI32
aI16
aI16
aI16
aI32
aI16
aI16
aI16
aI16
aI32
aI32
aI176
aI16
aI32
aI32
aI16
aI32
aI16
aI16
aI16
aI48
aI16
aI16
aI32
aI224
aI176
aI48
aI160
aI64
aI32
aI32
aI32
aI16
aI16
aI16
aI16
aI64
aI48
aI61074
aI64
aI16
aI16
aI16
aI16
aI64
aI32
aI32
aI144
aI48
aI16
aI16
aI352
aI96
aI32
aI32
aI32
aI16
aI2416
aI16
aI16
aI16
aI48
aI768
aI16
aI16
aI608
aI80
aI16
aI1200
aI144
aI16
aI112
aI32
aI32
aI16
aI16
aI32
aI64
aI32
aI480
aI16
aI320
aI432
aI16
aI16
aI16
aI80
aI256
aI144
aI64
aI16
aI608
aI16
aI16
aI80
aI208
aI16
aI16
aI32
aI16
aI48
aI16
aI64
aI16
aI80
aI176
aI16
aI96
aI64
aI16
aI64
aI96
aI64
aI16
aI48
aI32
aI80
aI64
aI112
aI48
aI16
aI48
aI112
aI80
aI32
aI160
aI368
aI144
aI16
aI16
aI1088
aI2096
aI16
aI80
aI16
aI16
aI528
aI1232
aI16
aI16
aI32
aI16
aI96
aI16
aI16
aI48
aI64
aI400
aI16
aI64
aI592
aI368
aI16
aI48
aI608
aI16
aI96
aI64
aI80
aI48
aI128
aI32
aI128
aI16
aI288
aI16
aI1040
aI64
aI32
aI16
aI32
aI112
aI80
aI320
aI48
aI16
aI32
aI16
aI16
aI16
aI96
aI16
aI16
aI80
aI16
aI16
aI128
aI240
aI16
aI96
aI16
aI16
aI16
aI128
aI48
aI64
aI16
aI16
aI32
aI64
aI32
aI16
aI272
aI48
aI224
aI32
aI48
aI48
aI16
aI16
aI240
aI16
aI1760
aI32
aI32
aI16
aI48
aI288
aI32
aI16
aI16
aI48
aI48
aI16
aI80
aI16
aI32
aI656
aI208
aI32
aI32
aI16
aI272
aI16
aI64
aI32
aI32
aI32
aI48
aI16
aI128
aI16
aI16
aI16
aI144
aI32
aI16
aI16
aI48
aI16
aI16
aI16
aI16
aI16
aI32
aI32
aI112
aI16
aI192
aI48
aI48
aI16
aI96
aI64
aI32
aI32
aI32
aI16
aI16
aI48
aI96
aI128
aI48
aI832
aI1088
aI16
aI64
aI400
aI32
aI32
aI16
aI112
aI80
aI16
aI32
aI16
aI16
aI32
aI272
aI16
aI48
aI144
aI16
aI32
aI16
aI32
aI16
aI16
aI48
aI64
aI400
aI64
aI16
aI16
aI624
aI32
aI272
aI16
aI368
aI16
aI16
aI16
aI32
aI32
aI16
aI16
aI448
aI16
aI32
aI240
aI16
aI64
aI32
aI16
aI32
aI48
aI48
aI160
aI96
aI1952
aI16
aI32
aI176
aI80
aI16
aI32
aI16
aI48
aI16
aI48
aI112
aI32
aI560
aI16
aI16
aI48
aI16
aI48
aI32
aI32
aI32
aI16
aI16
aI32
aI592
aI16
aI64
aI16
aI32
aI16
aI32
aI112
aI16
aI16
aI96
aI16
aI16
aI928
aI16
aI80
aI32
aI16
aI16
aI80
aI16
aI16
aI224
aI32
aI16
aI1424
aI32
aI16
aI16
aI16
aI16
aI16
aI16
aI16
aI16
aI2464
aI16
aI16
aI112
aI128
aI64
aI16
aI32
aI48
aI16
aI16
aI32
aI32
aI272
aI32
aI16
aI32
aI16
aI16
aI32
aI288
aI64
aI32
aI16
aI48
aI48
aI144
aI224
aI32
aI16
aI16
aI224
aI16
aI448
aI256
aI160
aI320
aI16
aI16
aI48
aI16
aI16
aI1520
aI16
aI16
aI64
aI544
aI96
aI1584
aI16
aI16
aI112
aI32
aI32
aI16
aI16
aI96
aI64
aI144
aI32
aI16
aI32
aI80
aI16
aI32
aI64
aI320
aI16
aI32
aI16
aI16
aI16
aI16
aI401
aI48
aI48
aI16
aI80
aI16
aI176
aI16
aI176
aI160
aI16
aI16
aI32
aI96
aI16
aI16
aI1232
aI192
aI32
aI16
aI48
aI96
aI48
aI16
aI16
aI16
aI32
aI48
aI672
aI64
aI16
aI16
aI16
aI32
aI16
aI32
aI32
aI224
aI272
aI208
aI1056
aI16
aI16
aI16
aI16
aI32
aI16
aI16
aI32
aI16
aI368
aI16
aI32
aI16
aI16
aI48
aI16
aI48
aI128
aI192
aI144
aI48
aI16
aI64
aI16
aI16
aI16
aI32
aI32
aI16
aI256
aI16
aI272
aI32
aI1328
aI112
aI176
aI240
aI16
aI16
aI1536
aI16
aI16
aI96
aI4304
aI32
aI32
aI16
aI32
aI16
aI16
aI16
aI16
aI16
aI624
aI16
aI32
aI32
aI16
aI176
aI48
aI16
aI16
aI32
aI16
aI16
aI96
aI16
aI32
aI16
aI96
aI5712
aI48
aI16
aI240
aI32
aI32
aI112
aI16
aI32
aI16
aI16
aI96
aI16
aI160
aI16
aI16
aI16
aI16
aI16
aI32
aI32
aI977
aI16
aI144
aI16
aI400
aI16
aI32
aI16
aI16
aI16
aI32
aI64
aI16
aI16
aI192
aI16
aI16
aI16
aI16
aI64
aI192
aI16
aI48
aI64
aI304
aI32
aI240
aI16
aI224
aI16
aI16
aI16
aI16
aI16
aI32
aI16
aI32
aI16
aI64
aI240
aI48
aI64
aI16
aI16
aI32
aI256
aI16
aI32
aI96
aI32
aI16
aI16
aI144
aI16
aI32
aI16
aI304
aI80
aI32
aI16
aI16
aI16
aI16
aI16
aI736
aI32
aI16
aI32
aI16
aI16
aI64
aI64
aI352
aI688
aI208
aI16
aI32
aI464
aI96
aI16
aI32
aI96
aI32
aI16
aI16
aI32
aI16
aI32
aI16
aI32
aI96
aI16
aI32
aI16
aI400
aI16
aI256
aI352
aI160
aI16
aI928
aI16
aI32
aI32
aI48
aI160
aI112
aI480
aI16
aI16
aI64
aI48
aI464
aI16
aI480
aI16
aI16
aI112
aI48
aI16
aI1776
aI32
aI16
aI32
aI1056
aI48
aI16
aI384
aI16
aI16
aI32
aI128
aI16
aI336
aI48
aI16
aI32
aI32
aI32
aI16
aI16
aI16
aI32
aI272
aI48
aI64
aI32
aI2288
aI16
aI32
aI16
aI64
aI16
aI16
aI16
aI64
aI32
aI16
aI16
aI32
aI16
aI432
aI560
aI32
aI16
aI16
aI64
aI64
aI32
aI48
aI16
aI32
aI32
aI16
aI112
aI16
aI48
aI16
aI16
aI544
aI272
aI1200
aI16
aI128
aI80
aI32
aI192
aI64
aI16
aI32
aI48
aI16
aI32
aI64
aI16
aI96
aI96
aI592
aI3040
aI32
aI32
aI80
aI16
aI16
aI16
aI352
aI144
aI32
aI48
aI48
aI32
aI240
aI64
aI32
aI160
aI48
aI32
aI800
aI2928
aI32
aI48
aI160
aI16
aI16
aI32
aI16
aI112
aI16
aI48
aI16
aI16
aI16
aI16
aI16
aI32
aI16
aI48
aI16
aI320
aI32
aI176
aI16
aI32
aI32
aI224
aI32
aI593
aI16
aI16
aI160
aI16
aI16
aI48
aI240
aI32
aI192
aI16
aI48
aI16
aI48
aI48
aI112
aI16
aI368
aI192
aI112
aI304
aI176
aI16
aI128
aI16
aI16
aI32
aI16
aI16
aI16
aI112
aI32
aI16
aI144
aI32
aI16
aI16
aI16
aI16
aI1104
aI64
aI32
aI32
aI1152
aI16
aI16
aI176
aI144
aI64
aI48
aI48
aI256
aI96
aI16
aI16
aI256
aI16
aI48
aI480
aI16
aI16
aI224
aI32
aI48
aI32
aI80
aI16
aI16
aI16
aI16
aI16
aI32
aI48
aI32
aI48
aI16
aI16
aI288
aI368
aI16
aI48
aI16
aI16
aI32
aI1696
aI16
aI16
aI432
aI16
aI16
aI16
aI16
aI48
aI16
aI16
aI32
aI80
aI16
aI16
aI16
aI304
aI16
aI48
aI48
aI16
aI32
aI16
aI192
aI336
aI16
aI16
aI16
aI16
aI48
aI16
aI592
aI32
aI32
aI64
aI384
aI48
aI16
aI32
aI48
aI96
aI16
aI384
aI32
aI16
aI16
aI16
aI144
aI32
aI32
aI16
aI16
aI48
aI384
aI32
aI64
aI32
aI16
aI80
aI32
aI64
aI32
aI16
aI64
aI16
aI16
aI96
aI16
aI16
aI192
aI176
aI16
aI160
aI16
aI80
aI32
aI80
aI32
aI16
aI48
aI96
aI145
aI176
aI448
aI48
aI48
aI16
aI16
aI32
aI16
aI16
aI32
aI64
aI128
aI336
aI32
aI896
aI48
aI32
aI64
aI64
aI16
aI64
aI16
aI384
aI32
aI144
aI160
aI32
aI64
aI96
aI48
aI16
aI16
aI16
aI208
aI32
aI16
aI16
aI1782
aI160
aI16
aI32
aI32
aI80
aI304
aI16
aI16
aI32
aI128
aI32
aI32
aI16
aI1712
aI16
aI16
aI32
aI16
aI16
aI32
aI144
aI64
aI16
aI16
aI48
aI48
aI16
aI48
aI128
aI48
aI16
aI16
aI480
aI16
aI16
aI144
aI16
aI16
aI336
aI16
aI16
aI16
aI16
aI304
aI64
aI64
aI512
aI16
aI16
aI16
aI32
aI32
aI16
aI16
aI16
aI16
aI5617
aI144
aI112
aI16
aI16
aI1616
aI16
aI320
aI96
aI16
aI48
aI16
aI32
aI32
aI16
aI16
aI32
aI80
aI16
aI96
aI128
aI16
aI16
aI16
aI96
aI16
aI32
aI16
aI32
aI32
aI16
aI112
aI32
aI16
aI48
aI80
aI16
aI96
aI32
aI16
aI16
aI16
aI16
aI112
aI112
aI64
aI32
aI32
aI16
aI1633
aI112
aI16
aI16
aI16
aI16
aI32
aI16
aI208
aI16
aI48
aI1584
aI32
aI128
aI16
aI16
aI16
aI32
aI608
aI16
aI16
aI16
aI16
aI224
aI16
aI224
aI16
aI16
aI48
aI240
aI16
aI32
aI16
aI432
aI16
aI48
aI16
aI32
aI176
aI16
aI16
aI128
aI16
aI464
aI64
aI16
aI176
aI80
aI16
aI32
aI32
aI32
aI1936
aI416
aI16
aI16
aI48
aI32
aI16
aI48
aI16
aI16
aI32
aI112
aI16
aI48
aI16
aI96
aI32
aI16
aI32
aI128
aI112
aI16
aI16
aI16
aI16
aI32
aI16
aI304
aI32
aI16
aI16
aI16
aI32
aI32
aI96
aI48
aI80
aI688
aI432
aI64
aI16
aI16
aI16
aI32
aI16
aI144
aI1008
aI16
aI80
aI64
aI16
aI736
aI192
aI16
aI80
aI160
aI64
aI16
aI160
aI16
aI32
aI16
aI16
aI128
aI16
aI16
aI32
aI32
aI64
aI112
aI352
aI16
aI16
aI32
aI16
aI96
aI16
aI16
aI144
aI16
aI48
aI16
aI16
aI16
aI16
aI576
aI16
aI1072
aI48
aI16
aI16
aI16
aI64
aI32
aI16
aI48
aI64
aI128
aI80
aI16
aI128
aI2288
aI48
aI16
aI80
aI48
aI80
aI336
aI16
aI16
aI32
aI32
aI16
aI48
aI16
aI16
aI48
aI112
aI16
aI16
aI16
aI32
aI48
aI32
aI48
aI64
aI320
aI16
aI128
aI16
aI16
aI16
aI32
aI176
aI16
aI16
aI16
aI272
aI16
aI16
aI64
aI160
aI64
aI352
aI64
aI32
aI560
aI48
aI16
aI16
aI64
aI16
aI16
aI448
aI48
aI32
aI16
aI16
aI32
aI928
aI32
aI16
aI16
aI29104
aI32
aI16
aI1760
aI16
aI16
aI16
aI96
aI288
aI48
aI16
aI64
aI16
aI160
aI16
aI16
aI320
aI16
aI16
aI32
aI256
aI32
aI48
aI16
aI16
aI80
aI256
aI16
aI32
aI48
aI16
aI64
aI16
aI16
aI80
aI32
aI96
aI16
aI16
aI32
aI16
aI64
aI48
aI32
aI16
aI16
aI16
aI160
aI16
aI16
aI16
aI481
aI32
aI32
aI16
aI416
aI48
aI480
aI464
aI16
aI16
aI16
aI48
aI32
aI32
aI256
aI224
aI16
aI689
aI16
aI16
aI16
aI80
aI48
aI16
aI16
aI32
aI16
aI16
aI64
aI32
aI16
aI1008
aI528
aI16
aI16
aI224
aI96
aI16
aI32
aI32
aI32
aI16
aI16
aI48
aI16
aI16
aI16
aI64
aI16
aI16
aI16
aI16
aI32
aI16
aI32
aI48
aI32
aI240
aI16
aI16
aI96
aI16
aI112
aI176
aI16
aI32
aI16
aI128
aI16
aI16
aI32
aI64
aI96
aI16
aI16
aI16
aI16
aI128
aI16
aI160
aI32
aI320
aI16
aI464
aI16
aI16
aI48
aI16
aI16
aI32
aI64
aI432
aI16
aI1392
aI16
aI80
aI32
aI80
aI1424
aI16
aI208
aI16
aI16
aI16
aI16
aI16
aI96
aI48
aI32
aI16
aI336
aI1936
aI32
aI400
aI1
aI16
aI32
aI32
aI112
aI16
aI16
aI688
aI177
aI32
aI48
aI32
aI16
aI336
aI16
aI64
aI7520
aI32
aI16
aI16
aI32
aI32
aI16
aI112
aI864
aI32
aI288
aI16
aI336
aI96
aI32
aI48
aI16
aI48
aI112
aI16
aI16
aI16
aI48
aI16
aI64
aI64
aI160
aI209
aI160
aI768
aI32
aI16
aI704
aI112
aI32
aI80
aI16
aI16
aI32
aI48
aI64
aI32
aI32
aI112
aI16
aI304
aI16
aI16
aI144
aI32
aI16
aI352
aI32
aI32
aI16
aI32
aI16
aI144
aI560
aI16
aI320
aI192
aI16
aI16
aI16
aI16
aI16
aI32
aI32
aI16
aI32
aI48
aI32
aI16
aI32
aI176
aI32
aI48
aI64
aI32
aI16
aI16
aI16
aI64
aI16
aI176
aI144
aI16
aI80
aI368
aI880
aI256
aI16
aI16
aI16
aI16
aI48
aI32
aI288
aI48
aI160
aI32
aI16
aI48
aI16
aI1344
aI432
aI64
aI32
aI16
aI16
aI144
aI32
aI48
aI32
aI16
aI208
aI16
aI16
aI32
aI368
aI16
aI48
aI576
aI688
aI96
aI48
aI1376
aI16
aI48
aI16
aI80
aI16
aI32
aI144
aI32
aI176
aI64
aI16
aI7360
aI912
aI32
aI640
aI16
aI16
aI32
aI32
aI16
aI16
aI800
aI32
aI160
aI256
aI16
aI32
aI16
aI32
aI16
aI368
aI32
aI320
aI80
aI16
aI32
aI16
aI64
aI448
aI32
aI16
aI80
aI64
aI48
aI3104
aI368
aI224
aI96
aI48
aI96
aI32
aI16
aI48
aI272
aI16
aI16
aI224
aI32
aI48
aI16
aI80
aI144
aI32
aI272
aI16
aI112
aI16
aI64
aI4291
aI32
aI16
aI256
aI16
aI48
aI16
aI1152
aI592
aI16
aI240
aI16
aI16
aI48
aI16
aI288
aI32
aI80
aI16
aI32
aI16
aI32
aI16
aI16
aI672
aI736
aI32
aI96
aI48
aI64
aI48
aI32
aI16
aI96
aI16
aI16
aI16
aI32
aI2240
aI16
aI16
aI16
aI128
aI16
aI16
aI16
aI16
aI32
aI32
aI16
aI16
aI64
aI32
aI16
aI16
aI16
aI272
aI16
aI16
aI16
aI176
aI128
aI16
aI64
aI16
aI64
aI16
aI16
aI16
aI16
aI1488
aI32
aI1632
aI176
aI16
aI688
aI16
aI32
aI16
aI16
aI16
aI16
aI384
aI16
aI64
aI640
aI32
aI16
aI128
aI16
aI32
aI16
aI1664
aI48
aI32
aI16
aI16
aI464
aI16
aI16
aI832
aI32
aI48
aI16
aI32
aI384
aI48
aI16
aI48
aI16
aI32
aI64
aI16
aI16
aI16
aI16
aI16
aI16
aI16
aI16
aI16
aI16
aI16
aI16
aI16
aI48
aI16
aI80
aI32
aI464
aI32
aI32
aI368
aI16
aI304
aI32
aI16
aI80
aI48
aI16
aI32
aI16
aI64
aI48
aI16
aI2080
aI464
aI16
aI176
aI48
aI112
aI32
aI16
aI144
aI32
aI48
aI176
aI16
aI112
aI80
aI16
aI48
aI48
aI144
aI160
aI64
aI16
aI32
aI32
aI32
aI256
aI16
aI16
aI32
aI32
aI64
aI112
aI16
aI416
aI416
aI16
aI1504
aI208
aI48
aI32
aI16
aI32
aI32
aI144
aI80
aI64
aI16
aI16
aI16
aI160
aI32
aI16
aI80
aI16
aI16
aI16
aI32
aI16
aI288
aI16
aI16
aI16
aI32
aI32
aI112
aI32
aI32
aI48
aI32
aI16
aI32
aI16
aI112
aI32
aI112
aI112
aI32
aI32
aI240
aI16
aI16
aI32
aI352
aI592
aI16
aI16
aI96
aI256
aI32
aI192
aI16
aI16
aI48
aI288
aI80
aI80
aI16
aI64
aI32
aI16
aI400
aI208
aI32
aI112
aI32
aI16
aI16
aI32
aI32
aI16
aI32
aI16
aI16
aI16
aI32
aI48
aI16
aI16
aI64
aI16
aI64
aI112
aI16
aI16
aI64
aI16
aI16
aI224
aI160
aI16
aI16
aI176
aI32
aI64
aI240
aI16
aI96
aI80
aI48
aI416
aI16
aI80
aI64
aI1072
aI144
aI64
aI1424
aI80
aI16
aI16
aI48
aI224
aI816
aI16
aI32
aI16
aI16
aI48
aI16
aI208
aI16
aI16
aI64
aI16
aI64
aI96
aI16
aI64
aI16
aI48
aI16
aI176
aI16
aI16
aI48
aI96
aI48
aI16
aI16
aI240
aI336
aI32
aI16
aI16
aI32
aI240
aI80
aI32
aI384
aI160
aI16
aI16
aI208
aI16
aI16
aI32
aI48
aI16
aI32
aI80
aI65
aI16
aI16
aI64
aI16
aI96
aI112
aI320
aI64
aI16
aI48
aI48
aI48
aI160
aI16
aI32
aI80
aI177
aI32
aI16
aI224
aI16
aI16
aI32
aI32
aI608
aI16
aI32
aI48
aI672
aI128
aI32
aI16
aI3536
aI16
aI16
aI80
aI16
aI16
aI64
aI16
aI80
aI32
aI64
aI992
aI32
aI16
aI16
aI32
aI16
aI16
aI16
aI16
aI32
aI16
aI32
aI192
aI16
aI48
aI48
aI16
aI544
aI48
aI16
aI320
aI16
aI64
aI16
aI1264
aI16
aI32
aI32
aI16
aI64
aI64
aI112
aI32
aI32
aI16
aI48
aI64
aI48
aI16
aI16
aI32
aI16
aI16
aI16
aI144
aI144
aI32
aI16
aI16
aI16
aI48
aI128
aI544
aI16
aI16
aI1056
aI1200
aI16
aI16
aI1616
aI288
aI16
aI288
aI16
aI80
aI16
aI16
aI241
aI48
aI16
aI48
aI32
aI64
aI32
aI80
aI64
aI32
aI32
aI128
aI32
aI16
aI96
aI32
aI1440
aI32
aI416
aI80
aI64
aI16
aI112
aI32
aI16
aI112
aI304
aI16
aI38995
aI16
aI17008
aI32
aI160
aI176
aI16
aI96
aI16
aI16
aI48
aI55747
aI32
aI16
aI80
aI16
aI32
aI1168
aI15248
aI368
aI16
aI16
aI32
aI16
aI176
aI3136
aI16
aI16
aI160
aI16
aI32
aI16
aI1008
aI64
aI80
aI16
aI304
aI144
aI64
aI16
aI32
aI32
aI240
aI1360
aI48
aI256
aI64
aI16
aI16
aI16
aI224
aI32
aI32
aI48
aI16
aI16
aI272
aI16
aI128
aI352
aI960
aI4128
aI32
aI16
aI16
aI32
aI16
aI128
aI32
aI128
aI352
aI160
aI144
aI16
aI144
aI16
aI624
aI64
aI16
aI48
aI32
aI16
aI32
aI16
aI16
aI848
aI16
aI16
aI16
aI64
aI32
aI16
aI16
aI16
aI32
aI32
aI16
aI112
aI32
aI32
aI16
aI16
aI32
aI48
aI80
aI224
aI64
aI16
aI16
aI16
aI16
aI16
aI32
aI32
aI32
aI2560
aI16
aI64
aI48
aI16
aI16
aI32
aI16
aI368
aI784
aI64
aI16
aI64
aI576
aI240
aI336
aI192
aI32
aI384
aI208
aI16
aI16
aI240
aI16
aI16
aI32
aI16
aI16
aI16
aI16
aI16
aI16
aI16
aI16
aI16
aI16
aI96
aI16
aI96
aI16
aI288
aI128
aI32
aI16
aI32
aI208
aI32
aI145
aI64
aI16
aI48
aI16
aI48
aI240
aI1392
aI32
aI64
aI16
aI64
aI16
aI48
aI16
aI16
aI16
aI48
aI144
aI256
aI64
aI16
aI16
aI16
aI32
aI96
aI16
aI16
aI656
aI16
aI16
aI32
aI80
aI16
aI352
aI16
aI16
aI16
aI32
aI32
aI16
aI16
aI4512
aI48
aI16
aI32
aI32
aI16
aI32
aI416
aI16
aI32
aI16
aI16
aI16
aI32
aI64
aI464
aI16
aI208
aI16
aI80
aI32
aI16
aI32
aI16
aI144
aI96
aI16
aI32
aI16
aI32
aI80
aI32
aI48
aI80
aI16
aI16
aI272
aI224
aI1392
aI64
aI16
aI16
aI16
aI240
aI240
aI16
aI1120
aI80
aI32
aI320
aI16
aI16
aI1536
aI16
aI64
aI32
aI16
aI16
aI448
aI80
aI480
aI32
aI32
aI16
aI48
aI208
aI16
aI448
aI16
aI16
aI16
aI16
aI224
aI48
aI32
aI32
aI32
aI16
aI16
aI80
aI16
aI16
aI1472
aI176
aI16
aI80
aI176
aI16
aI48
aI80
aI8864
aI32
aI16
aI16
aI16
aI48
aI160
aI16
aI16
aI128
aI16
aI320
aI128
aI16
aI16
aI16
aI16
aI1776
aI16
aI32
aI144
aI16
aI16
aI16
aI192
aI16
aI16
aI64
aI160
aI16
aI16
aI16
aI368
aI16
aI112
aI16
aI16
aI16
aI16
aI16
aI112
aI16
aI16
aI16
aI16
aI32
aI192
aI32
aI32
aI32
aI64
aI96
aI16
aI688
aI16
aI80
aI16
aI336
aI96
aI16
aI64
aI16
aI16
aI256
aI16
aI80
aI16
aI16
aI176
aI144
aI48
aI16
aI16
aI512
aI112
aI128
aI32
aI192
aI64
aI16
aI112
aI48
aI16
aI16
aI640
aI16
aI16
aI48
aI32
aI80
aI96
aI64
aI112
aI96
aI16
aI96
aI32
aI48
aI32
aI64
aI16
aI32
aI16
aI801
aI48
aI16
aI16
aI16
aI64
aI16
aI16
aI16
aI1216
aI48
aI16
aI64
aI16
aI48
aI16
aI16
aI112
aI16
aI16
aI16
aI16
aI48
aI32
aI448
aI16
aI128
aI32
aI48
aI16
aI16
aI64
aI64
aI16
aI16
aI32
aI48
aI128
aI528
aI64
aI16
aI16
aI96
aI32
aI32
aI80
aI16
aI96
aI16
aI48
aI528
aI144
aI16
aI32
aI144
aI112
aI16
aI144
aI32
aI16
aI16
aI16
aI16
aI16
aI48
aI16
aI384
aI16
aI672
aI16
aI16
aI32
aI48
aI64
aI112
aI16
aI32
aI16
aI6240
aI208
aI336
aI32
aI496
aI16
aI16
aI688
aI96
aI288
aI16
aI96
aI304
aI304
aI32
aI32
aI128
aI16
aI160
aI32
aI16
aI32
aI16
aI928
aI32
aI48
aI16
aI32
aI16
aI256
aI64
aI16
aI48
aI64
aI464
aI32
aI48
aI16
aI240
aI32
aI16
aI16
aI16
aI32
aI2033
aI2624
aI80
aI128
aI48
aI16
aI32
aI16
aI16
aI80
aI928
aI496
aI368
aI2000
aI96
aI1344
aI48
aI592
aI128
aI16
aI32
aI32
aI32
aI416
aI16
aI48
aI32
aI80
aI224
aI48
aI16
aI32
aI48
aI32
aI16
aI16
aI16
aI32
aI80
aI16
aI16
aI16
aI16
aI16
aI16
aI16
aI16
aI128
aI592
aI208
aI368
aI96
aI160
aI144
aI48
aI16
aI16
aI32
aI16
aI16
aI48
aI32
aI64
aI32
aI640
aI160
aI16
aI32
aI16
aI16
aI32
aI64
aI16
aI32
aI4624
aI16
aI64
aI16
aI128
aI16
aI256
aI16
aI16
aI1072
aI32
aI16
aI32
aI16
aI224
aI16
aI80
aI2928
aI80
aI2112
aI32
aI128
aI16
aI528
aI16
aI64
aI80
aI32
aI64
aI128
aI208
aI336
aI16
aI32
aI16
aI16
aI864
aI16
aI16
aI16
aI16
aI768
aI16
aI16
aI64
aI48
aI32
aI192
aI16
aI80
aI16
aI464
aI48
aI64
aI112
aI64
aI16
aI16
aI16
aI16
aI32
aI304
aI32
aI176
aI656
aI1136
aI176
aI464
aI1104
aI400
aI288
aI304
aI272
aI448
aI32
aI16
aI16
aI96
aI144
aI240
aI3232
aI32
aI16
aI144
aI16
aI16
aI80
aI48
aI16
aI32
aI32
aI16
aI16
aI16
aI16
aI32
aI768
aI16
aI160
aI32
aI16
aI336
aI64
aI16
aI48
aI32
aI16
aI576
aI32
aI48
aI528
aI112
aI128
aI16
aI32
aI176
aI160
aI160
aI64
aI16
aI32
aI160
aI64
aI64
aI16
aI32
aI32
aI576
aI16
aI16
aI16
aI32
aI80
aI48
aI16
aI128
aI208
aI16
aI32
aI32
aI16
aI512
aI48
aI16
aI16
aI16
aI192
aI16
aI16
aI32
aI16
aI128
aI352
aI64
aI912
aI400
aI32
aI240
aI16
aI48
aI16
aI16
aI16
aI368
aI48
aI368
aI160
aI16
aI32
aI16
aI16
aI32
aI336
aI16
aI4848
aI1312
aI16
aI512
aI16
aI16
aI48
aI176
aI16
aI32
aI80
aI80
aI96
aI16
aI16
aI16
aI16
aI768
aI16
aI80
aI64
aI16
aI16
aI64
aI16
aI112
aI16
aI32
aI32
aI48
aI16
aI80
aI48
aI16
aI288
aI16
aI64
aI112
aI16
aI16
aI16
aI16
aI16
aI112
aI448
aI208
aI16
aI96
aI32
aI16
aI32
aI112
aI944
aI240
aI16
aI16
aI128
aI48
aI16
aI32
aI32
aI16
aI64
aI16
aI32
aI16
aI32
aI16
aI256
aI16
aI32
aI16
aI32
aI112
aI480
aI432
aI16
aI48
aI16
aI16
aI160
aI16
aI64
aI224
aI384
aI48
aI16
aI48
aI32
aI32
aI160
aI16
aI32
aI144
aI16
aI32
aI16
aI16
aI224
aI16
aI304
aI112
aI304
aI32
aI48
aI16
aI80
aI160
aI32
aI96
aI16
aI32
aI688
aI32
aI224
aI64
aI16
aI320
aI16
aI16
aI96
aI32
aI32
aI16
aI16
aI16
aI2576
aI96
aI32
aI16
aI32
aI48
aI16
aI128
aI208
aI16
aI32
aI1328
aI16
aI80
aI16
aI160
aI16
aI32
aI192
aI64
aI48
aI16
aI48
aI64
aI32
aI32
aI48
aI32
aI16
aI32
aI928
aI240
aI16
aI16
aI1568
aI48
aI16
aI32
aI1137
aI16
aI48
aI96
aI48
aI16
aI48
aI16
aI64
aI624
aI64
aI16
aI32
aI464
aI592
aI160
aI352
aI384
aI16
aI32
aI48
aI16
aI16
aI96
aI144
aI32
aI80
aI48
aI224
aI192
aI16
aI32
aI128
aI720
aI16
aI48
aI16
aI48
aI32
aI16
aI848
aI64
aI448
aI32
aI32
aI16
aI16
aI16
aI16
aI16
aI16
aI16
aI16
aI64
aI16
aI16
aI1216
aI16
aI80
aI16
aI32
aI16
aI32
aI16
aI32
aI32
aI448
aI64
aI16
aI16
aI96
aI64
aI96
aI16
aI32
aI16
aI16
aI32
aI32
aI144
aI32
aI16
aI32
aI64
aI80
aI32
aI336
aI160
aI176
aI192
aI688
aI32
aI176
aI128
aI48
aI64
aI16
aI16
aI16
aI16
aI160
aI16
aI48
aI320
aI16
aI80
aI64
aI32
aI16
aI320
aI304
aI16
aI16
aI64
aI16
aI304
aI48
aI32
aI16
aI80
aI640
aI16
aI32
aI32
aI224
aI16
aI96
aI16
aI16
aI96
aI128
aI16
aI16
aI32
aI32
aI16
aI96
aI96
aI32
aI16
aI48
aI16
aI48
aI48
aI64
aI16
aI16
aI16
aI16
aI144
aI32
aI16
aI208
aI16
aI16
aI16
aI16
aI32
aI448
aI16
aI16
aI32
aI352
aI16
aI3152
aI32
aI32
aI16
aI16
aI80
aI32
aI16
aI16
aI48
aI32
aI16
aI16
aI16
aI16
aI32
aI48
aI48
aI16
aI64
aI16
aI64
aI256
aI304
aI176
aI240
aI32
aI48
aI16
aI80
aI96
aI80
aI944
aI16
aI16
aI1104
aI32
aI48
aI48
aI128
aI48
aI320
aI736
aI288
aI16
aI112
aI80
aI16
aI432
aI16
aI16
aI16
aI16
aI16
aI192
aI16
aI1024
aI32
aI1008
aI80
aI16
aI16
aI16
aI32
aI48
aI16
aI640
aI32
aI16
aI48
aI48
aI32
aI16
aI160
aI224
aI16
aI16
aI160
aI32
aI16
aI16
aI32
aI112
aI16
aI32
aI32
aI16
aI16
aI160
aI48
aI464
aI16
aI16
aI16
aI16
aI32
aI16
aI688
aI48
aI16
aI16
aI64
aI16
aI48
aI64
aI16
aI16
aI16
aI16
aI192
aI48
aI256
aI16
aI32
aI16
aI16
aI32
aI32
aI176
aI176
aI16
aI16
aI16
aI16
aI80
aI48
aI96
aI32
aI16
aI176
aI48
aI32
aI32
aI32
aI16
aI80
aI16
aI112
aI96
aI16
aI1024
aI16
aI208
aI48
aI16
aI16
aI64
aI16
aI304
aI16
aI64
aI16
aI16
aI1457
aI16
aI48
aI64
aI16
aI16
aI192
aI32
aI16
aI144
aI16
aI16
aI16
aI16
aI784
aI32
aI16
aI16
aI16
aI16
aI16
aI48
aI64
aI16
aI16
aI128
aI16
aI16
aI64
aI64
aI96
aI336
aI32
aI16
aI48
aI16
aI16
aI16
aI16
aI16
aI48
aI224
aI32
aI48
aI48
aI128
aI16
aI32
aI16
aI16
aI16
aI32
aI2352
aI128
aI16
aI80
aI32
aI16
aI16
aI16
aI32
aI48
aI16
aI16
aI128
aI400
aI16
aI16
aI32
aI32
aI16
aI16
aI16
aI48
aI16
aI256
aI96
aI240
aI32
aI448
aI144
aI16
aI48
aI32
aI32
aI96
aI16
aI288
aI32
aI144
aI48
aI32
aI64
aI96
aI144
aI128
aI32
aI16
aI48
aI256
aI48
aI16
aI16
aI16
aI16
aI592
aI32
aI16
aI432
aI16
aI224
aI736
aI304
aI32
aI160
aI16
aI16
aI16
aI1040
aI112
aI32
aI16
aI48
aI64
aI16
aI224
aI32
aI624
aI16
aI144
aI112
aI16
aI48
aI16
aI96
aI16
aI144
aI16
aI16
aI32
aI48
aI16
aI16
aI16
aI16
aI656
aI1824
aI16
aI32
aI16
aI32
aI16
aI16
aI32
aI32
aI16
aI16
aI128
aI16
aI16
aI112
aI16
aI48
aI176
aI32
aI16
aI16
aI64
aI96
aI16
aI48
aI16
aI16
aI16
aI32
aI480
aI3265
aI16
aI16
aI16
aI32
aI432
aI192
aI336
aI544
aI160
aI288
aI352
aI144
aI144
aI64
aI480
aI32
aI352
aI112
aI64
aI16
aI192
aI64
aI16
aI16
aI1984
aI16
aI192
aI16
aI16
aI64
aI32
aI16
aI48
aI16
aI16
aI16
aI80
aI432
aI16
aI144
aI16
aI16
aI16
aI64
aI16
aI16
aI112
aI16
aI16
aI16
aI32
aI32
aI32
aI32
aI16
aI608
aI32
aI16
aI16
aI688
aI7600
aI816
aI48
aI480
aI16
aI128
aI32
aI16
aI16
aI304
aI416
aI32
aI112
aI16
aI208
aI16
aI16
aI16
aI112
aI48
aI16
aI336
aI32
aI16
aI224
aI176
aI16
aI16
aI80
aI16
aI80
aI128
aI64
aI688
aI64
aI32
aI656
aI16
aI32
aI208
aI16
aI48
aI48
aI16
aI16
aI112
aI16
aI64
aI32
aI16
aI32
aI32
aI16
aI32
aI48
aI48
aI16
aI16
aI32
aI96
aI16
aI768
aI16
aI32
aI16
aI16
aI16
aI16
aI48
aI32
aI16
aI704
aI48
aI96
aI336
aI144
aI32
aI16
aI208
aI16
aI16
aI16
aI16
aI288
aI16
aI1120
aI96
aI16
aI64
aI1168
aI16
aI640
aI112
aI16
aI16
aI32
aI16
aI32
aI112
aI96
aI16
aI32
aI64
aI48
aI256
aI16
aI16
aI112
aI128
aI16
aI16
aI32
aI16
aI32
aI16
aI128
aI576
aI16
aI144
aI480
aI48
aI32
aI352
aI16
aI304
aI16
aI16
aI16
aI16
aI16
aI16
aI288
aI16
aI48
aI192
aI32
aI2016
aI768
aI2464
aI192
aI240
aI80
aI32
aI16
aI16
aI32
aI16
aI32
aI32
aI16
aI32
aI16
aI32
aI48
aI144
aI208
aI704
aI192
aI32
aI16
aI96
aI16
aI16
aI16
aI16
aI672
aI16
aI240
aI64
aI160
aI16
aI256
aI2144
aI16
aI96
aI16
aI16
aI336
aI416
aI32
aI16
aI16
aI112
aI16
aI768
aI16
aI96
aI416
aI32
aI32
aI48
aI16
aI16
aI128
aI16
aI448
aI64
aI16
aI32
aI480
aI16
aI16
aI16
aI16
aI48
aI16
aI272
aI16
aI416
aI48
aI16
aI16
aI224
aI80
aI32
aI16
aI16
aI32
aI32
aI16
aI16
aI64
aI704
aI272
aI16
aI33
aI112
aI16
aI16
aI1
aI144
aI96
aI16
aI12657
aI32
aI16
aI32
aI16
aI16
aI16
aI80
aI16
aI16
aI64
aI32
aI368
aI32
aI96
aI48
aI288
aI16
aI32
aI16
aI16
aI48
aI16
aI16
aI16
aI16
aI16
aI32
aI112
aI16
aI16
aI416
aI320
aI16
aI16
aI32
aI32
aI32
aI48
aI16
aI1488
aI208
aI32
aI16
aI16
aI128
aI416
aI192
aI48
aI16
aI16
aI448
aI160
aI16
aI16
aI16
aI320
aI16
aI656
aI16
aI16
aI16
aI80
aI32
aI16
aI3506
aI384
aI32
aI64
aI16
aI16
aI6336
aI128
aI16
aI16
aI352
aI16
aI1648
aI16
aI32
aI16
aI16
aI32
aI32
aI32
aI112
aI2016
aI16
aI32
aI16
aI64
aI16
aI400
aI32
aI64
aI240
aI16
aI48
aI16
aI224
aI16
aI64
aI16
aI32
aI16
aI16
aI16
aI16
aI16
aI16
aI352
aI16
aI16
aI160
aI48
aI1072
aI32
aI32
aI16
aI432
aI16
aI464
aI32
aI96
aI32
aI224
aI32
aI64
aI32
aI16
aI16
aI64
aI912
aI16
aI16
aI112
aI176
aI16
aI112
aI16
aI272
aI304
aI224
aI16
aI32
aI16
aI16
aI15922
aI64
aI16
aI32
aI16
aI16
aI16
aI32
aI176
aI16
aI64
aI48
aI112
aI16
aI624
aI96
aI16
aI16
aI304
aI352
aI16
aI16
aI32
aI16
aI64
aI32
aI32
aI16
aI16
aI96
aI16
aI16
aI48
aI16
aI912
aI480
aI256
aI16
aI16
aI16
aI224
aI16
aI80
aI16
aI16
aI32
aI32
aI32
aI64
aI160
aI16
aI48
aI16
aI2336
aI16
aI16
aI352
aI352
aI48
aI16
aI32
aI16
aI416
aI16
aI48
aI192
aI96
aI800
aI16
aI144
aI16
aI2737
aI32
aI128
aI32
aI144
aI16
aI16
aI16
aI48
aI16
aI32
aI80
aI32
aI209
aI112
aI240
aI256
aI48
aI16
aI32
aI16
aI32
aI32
aI192
aI112
aI16
aI32
aI32
aI336
aI96
aI16
aI80
aI48
aI64
aI16
aI32
aI816
aI16
aI48
aI16
aI480
aI32
aI16
aI16
aI16
aI16
aI16
aI16
aI16
aI32
aI2016
aI64
aI16
aI16
aI16
aI96
aI64
aI16
aI16
aI32
aI64
aI80
aI32
aI112
aI192
aI128
aI16
aI16
aI128
aI64
aI32
aI176
aI16
aI16
aI16
aI48
aI48
aI16
aI16
aI16
aI16
aI64
aI16
aI16
aI16
aI368
aI16
aI240
aI16
aI48
aI16
aI32
aI16
aI16
aI16
aI32
aI16
aI16
aI208
aI96
aI112
aI64
aI16
aI32
aI32
aI80
aI64
aI352
aI16
aI32
aI16
aI48
aI48
aI96
aI16
aI32
aI320
aI48
aI16
aI48
aI1072
aI80
aI2320
aI7040
aI112
aI32
aI16
aI32
aI16
aI16
aI48
aI272
aI64
aI16
aI32
aI16
aI208
aI48
aI48
aI16
aI16
aI32
aI64
aI32
aI16
aI48
aI16
aI16
aI208
aI64
aI112
aI16
aI48
aI112
aI16
aI48
aI16
aI16
aI304
aI96
aI128
aI16
aI480
aI16
aI48
aI64
aI16
aI80
aI48
aI16
aI80
aI16
aI32
aI16
aI16
aI16
aI16
aI48
aI16
aI16
aI16
aI16
aI16
aI16
aI16
aI48
aI48
aI48
aI16
aI32
aI32
aI16
aI304
aI240
aI16
aI64
aI32
aI16
aI2096
aI64
aI32
aI32
aI32
aI272
aI32
aI96
aI16
aI785
aI16
aI16
aI16
aI112
aI48
aI80
aI48
aI336
aI16
aI16
aI80
aI32
aI80
aI80
aI64
aI32
aI16
aI224
aI544
aI32
aI160
aI128
aI80
aI16
aI16
aI32
aI16
aI160
aI304
aI16
aI16
aI16
aI16
aI32
aI480
aI32
aI16
aI192
aI32
aI144
aI16
aI16
aI16
aI16
aI16
aI16
aI16
aI304
aI32
aI64
aI16
aI16
aI160
aI16
aI16
aI16
aI32
aI32
aI16
aI16
aI32
aI16
aI192
aI96
aI16
aI32
aI16
aI64
aI768
aI32
aI768
aI64
aI16
aI16
aI48
aI128
aI32
aI224
aI16
aI16
aI816
aI16
aI224
aI16
aI208
aI144
aI272
aI16
aI16
aI16
aI16
aI128
aI16
aI16
aI32
aI16
aI96
aI32
aI112
aI112
aI176
aI64
aI960
aI128
aI16
aI32
aI32
aI16
aI16
aI32
aI64
aI16
aI32
aI64
aI64
aI48
aI32
aI160
aI16
aI192
aI32
aI16
aI48
aI816
aI48
aI32
aI32
aI64
aI208
aI16
aI32
aI96
aI16
aI384
aI16
aI64
aI16
aI48
aI16
aI16
aI48
aI144
aI512
aI384
aI48
aI16
aI16
aI368
aI64
aI32
aI128
aI32
aI336
aI32
aI64
aI64
aI16
aI16
aI16
aI32
aI32
aI496
aI48
aI1408
aI32
aI160
aI32
aI32
aI16
aI16
aI3424
aI16
aI784
aI16
aI16
aI16
aI64
aI32
aI128
aI16
aI64
aI96
aI48
aI16
aI16
aI32
aI112
aI32
aI112
aI16
aI96
aI16
aI32
aI16
aI16
aI48
aI32
aI16
aI16
aI48
aI16
aI16
aI32
aI192
aI16
aI16
aI64
aI96
aI16
aI16
aI32
aI48
aI16
aI16
aI96
aI16
aI528
aI128
aI48
aI80
aI16
aI320
aI944
aI112
aI32
aI368
aI304
aI192
aI16
aI32
aI64
aI32
aI192
aI48
aI16
aI16
aI16
aI16
aI16
aI16
aI16
aI64
aI144
aI480
aI144
aI16
aI656
aI144
aI16
aI32
aI32
aI32
aI48
aI48
aI224
aI16
aI16
aI80
aI16
aI16
aI16
aI432
aI176
aI16
aI64
aI64
aI32
aI16
aI32
aI48
aI16
aI16
aI16
aI16
aI64
aI16
aI16
aI400
aI80
aI32
aI304
aI96
aI32
aI16
aI368
aI16
aI16
aI64
aI16
aI64
aI32
aI32
aI16
aI32
aI16
aI32
aI224
aI16
aI48
aI22240
aI16
aI16
aI16
aI496
aI240
aI16
aI16
aI32
aI16
aI80
aI48
aI16
aI224
aI64
aI48
aI432
aI32
aI16
aI16
aI32
aI16
aI16
aI16
aI384
aI160
aI32
aI16
aI16
aI16
aI112
aI16
aI144
aI240
aI144
aI16
aI16
aI16
aI32
aI160
aI2016
aI16
aI80
aI32
aI16
aI32
aI16
aI176
aI16
aI224
aI240
aI32
aI32
aI16
aI16
aI32
aI192
aI16
aI576
aI16
aI32
aI32
aI96
aI16
aI16
aI80
aI16
aI16
aI16
aI16
aI64
aI16
aI96
aI32
aI16
aI64
aI128
aI16
aI48
aI32
aI96
aI48
aI48
aI336
aI32
aI32
aI96
aI16
aI16
aI16
aI240
aI32
aI368
aI17
aI16
aI80
aI16
aI48
aI64
aI912
aI80
aI16
aI64
aI32
aI160
aI16
aI32
aI16
aI128
aI224
aI96
aI16
aI96
aI145
aI64
aI16
aI32
aI112
aI32
aI384
aI16
aI16
aI272
aI96
aI16
aI16
aI16
aI48
aI32
aI32
aI16
aI16
aI1360
aI16
aI128
aI96
aI672
aI48
aI48
aI64
aI16
aI32
aI144
aI16
aI64
aI352
aI416
aI256
aI208
aI16
aI32
aI16
aI16
aI16
aI64
aI80
aI16
aI16
aI16
aI16
aI16
aI16
aI32
aI16
aI672
aI48
aI64
aI32
aI16
aI32
aI32
aI16
aI16
aI16
aI16
aI16
aI48
aI16
aI16
aI32
aI32
aI48
aI32
aI160
aI112
aI16
aI80
aI16
aI240
aI48
aI16
aI96
aI80
aI16
aI16
aI32
aI1024
aI16
aI16
aI64
aI32
aI48
aI16
aI48
aI16
aI16
aI48
aI48
aI32
aI16
aI48
aI240
aI16
aI16
aI16
aI64
aI16
aI176
aI16
aI32
aI112
aI32
aI32
aI96
aI64
aI512
aI192
aI32
aI32
aI16
aI16
aI160
aI32
aI80
aI96
aI608
aI16
aI64
aI96
aI16
aI16
aI64
aI32
aI32
aI32
aI16
aI16
aI1328
aI64
aI32
aI832
aI416
aI16
aI16
aI160
aI16
aI16
aI32
aI736
aI32
aI112
aI16
aI64
aI32
aI880
aI32
aI16
aI16
aI256
aI96
aI208
aI32
aI32
aI80
aI64
aI16
aI48
aI16
aI16
aI16
aI32
aI16
aI624
aI16
aI80
aI16
aI16
aI160
aI32
aI144
aI64
aI48
aI432
aI16
aI32
aI64
aI16
aI16
aI16
aI48
aI80
aI16
aI48
aI16
aI208
aI16
aI16
aI48
aI16
aI32
aI464
aI96
aI16
aI32
aI16
aI16
aI48
aI16
aI352
aI48
aI208
aI80
aI64
aI144
aI96
aI16
aI32
aI16
aI48
aI240
aI32
aI16
aI16
aI96
aI48
aI112
aI48
aI32
aI64
aI80
aI176
aI16
aI16
aI64
aI128
aI32
aI32
aI16
aI16
aI16
aI32
aI192
aI96
aI720
aI16
aI32
aI16
aI32
aI192
aI128
aI6112
aI448
aI304
aI16
aI16
aI48
aI48
aI16
aI144
aI112
aI48
aI16
aI16
aI64
aI16
aI32
aI32
aI32
aI32
aI32
aI144
aI16
aI160
aI16
aI16
aI16
aI16
aI16
aI16
aI176
aI16
aI16
aI48
aI64
aI176
aI32
aI16
aI48
aI160
aI16
aI576
aI32
aI448
aI64
aI8288
aI16
aI32
aI32
aI16
aI16
aI16
aI176
aI32
aI32
aI16
aI64
aI16
aI160
aI80
aI48
aI16
aI320
aI2464
aI16
aI16
aI32
aI48
aI16
aI16
aI288
aI16
aI16
aI16
aI48
aI48
aI16
aI64
aI16
aI32
aI48
aI16
aI32
aI16
aI16
aI176
aI16
aI48
aI32
aI16
aI465
aI32
aI16
aI80
aI144
aI224
aI32
aI928
aI320
aI64
aI16
aI16
aI64
aI80
aI32
aI400
aI48
aI32
aI160
aI16
aI32
aI16
aI592
aI128
aI192
aI256
aI16
aI48
aI96
aI16
aI16
aI112
aI625
aI16
aI16
aI16
aI16
aI32
aI240
aI32
aI32
aI16
aI32
aI32
aI48
aI80
aI48
aI32
aI16
aI16
aI16
aI64
aI16
aI16
aI16
aI16
aI1904
aI160
aI16
aI256
aI16
aI16
aI1744
aI64
aI224
aI16
aI16
aI1008
aI80
aI16
aI128
aI16
aI16
aI512
aI192
aI16
aI32
aI16
aI16
aI64
aI224
aI16
aI240
aI16
aI48
aI16
aI464
aI48
aI128
aI736
aI32
aI48
aI16
aI256
aI144
aI32
aI32
aI32
aI16
aI224
aI48
aI32
aI16
aI16
aI16
aI16
aI16
aI240
aI96
aI176
aI64
aI144
aI96
aI32
aI32
aI16
aI48
aI16
aI32
aI80
aI64
aI16
aI16
aI224
aI64
aI192
aI16
aI13840
aI16
aI16
aI144
aI16
aI112
aI16
aI288
aI192
aI592
aI16
aI16
aI16
aI32
aI208
aI240
aI32
aI16
aI2128
aI16
aI32
aI32
aI16
aI16
aI320
aI80
aI16
aI16
aI32
aI128
aI16
aI32
aI9936
aI16
aI48
aI96
aI80
aI80
aI368
aI32
aI96
aI16
aI16
aI224
aI16
aI48
aI32
aI16
aI32
aI16
aI720
aI16
aI16
aI144
aI16
aI80
aI80
aI1776
aI64
aI32
aI144
aI688
aI16
aI16
aI16
aI80
aI32
aI112
aI16
aI16
aI80
aI16
aI464
aI16
aI80
aI96
aI16
aI32
aI16
aI4928
aI64
aI160
aI16
aI32
aI16
aI16
aI512
aI1344
aI80
aI320
aI80
aI1760
aI1472
aI160
aI16
aI160
aI32
aI16
aI32
aI48
aI16
aI16
aI48
aI16
aI64
aI16
aI80
aI16
aI16
aI624
aI16
aI112
aI48
aI32
aI16
aI16
aI32
aI16
aI16
aI64
aI16
aI80
aI80
aI16
aI48
aI16
aI48
aI32
aI32
aI624
aI32
aI16
aI304
aI16
aI3568
aI16
aI16
aI192
aI32
aI64
aI992
aI48
aI16
aI48
aI32
aI32
aI16
aI16
aI16
aI16
aI192
aI112
aI96
aI16
aI32
aI32
aI48
aI16
aI128
aI32
aI96
aI32
aI16
aI16
aI64
aI16
aI16
aI16
aI16
aI48
aI80
aI32
aI48
aI128
aI32
aI16
aI16
aI176
aI32
aI16
aI32
aI64
aI288
aI112
aI2240
aI16
aI16
aI48
aI176
aI48
aI192
aI16
aI48
aI16
aI16
aI288
aI304
aI464
aI16
aI16
aI80
aI64
aI16
aI16
aI16
aI16
aI32
aI16
aI784
aI128
aI48
aI64
aI16
aI32
aI16
aI96
aI480
aI16
aI16
aI2256
aI304
aI48
aI16
aI976
aI16
aI112
aI16
aI16
aI16
aI16
aI1088
aI16
aI32
aI16
aI16
aI80
aI16
aI128
aI32
aI1312
aI16
aI32
aI192
aI624
aI592
aI144
aI1184
aI80
aI112
aI16
aI16
aI32
aI16
aI16
aI16
aI16
aI16
aI32
aI80
aI16
aI944
aI16
aI64
aI16
aI96
aI864
aI800
aI80
aI16
aI288
aI464
aI368
aI208
aI48
aI112
aI256
aI64
aI32
aI16
aI48
aI48
aI16
aI16
aI112
aI16
aI16
aI32
aI16
aI160
aI48
aI48
aI16
aI64
aI64
aI96
aI48
aI16
aI64
aI624
aI32
aI80
aI32
aI16
aI16
aI48
aI129
aI96
aI16
aI16
aI16
aI16
aI48
aI16
aI16
aI32
aI32
aI48
aI32
aI416
aI64
aI32
aI16
aI16
aI16
aI560
aI80
aI16
aI64
aI16
aI16
aI16
aI96
aI16
aI1
aI96
aI496
aI16
aI16
aI16
aI32
aI16
aI16
aI128
aI16
aI16
aI16
aI16
aI16
aI96
aI16
aI64
aI80
aI48
aI48
aI96
aI32
aI16
aI128
aI160
aI16
aI48
aI160
aI144
aI16
aI16
aI16
aI32
aI80
aI32
aI16
aI16
aI16
aI16
aI16
aI320
aI32
aI16
aI176
aI32
aI32
aI32
aI16
aI16
aI16
aI16
aI240
aI16
aI16
aI96
aI32
aI64
aI16
aI160
aI144
aI3312
aI16
aI16
aI16
aI16
aI48
aI16
aI16
aI16
aI112
aI16
aI96
aI16
aI32
aI16
aI32
aI16
aI16
aI160
aI16
aI16
aI32
aI48
aI16
aI16
aI32
aI16
aI1360
aI48
aI16
aI48
aI16
aI64
aI32
aI48
aI16
aI64
aI592
aI48
aI64
aI32
aI160
aI16
aI112
aI176
aI16
aI48
aI208
aI32
aI48
aI1552
aI48
aI16
aI16
aI240
aI64
aI192
aI16
aI48
aI16
aI64
aI32
aI16
aI144
aI128
aI240
aI32
aI16
aI112
aI144
aI816
aI368
aI32
aI16
aI64
aI32
aI16
aI16
aI32
aI640
aI32
aI32
aI384
aI1552
aI16
aI16
aI16
aI16
aI5520
aI32
aI16
aI160
aI32
aI16
aI16
aI704
aI32
aI16
aI16
aI16
aI368
aI544
aI16
aI16
aI16
aI16
aI112
aI16
aI192
aI16
aI16
aI16
aI16
aI16
aI32
aI736
aI16
aI16
aI48
aI16
aI32
aI16
aI176
aI16
aI16
aI48
aI64
aI80
aI16
aI224
aI16
aI80
aI16
aI16
aI16
aI32
aI16
aI64
aI144
aI160
aI16
aI992
aI16
aI32
aI64
aI16
aI16
aI384
aI16
aI176
aI32
aI64
aI32
aI144
aI16
aI96
aI16
aI112
aI16
aI144
aI16
aI176
aI16
aI96
aI80
aI144
aI80
aI48
aI32
aI16
aI1280
aI16
aI16
aI32
aI16
aI16
aI272
aI96
aI16
aI16
aI32
aI16
aI32
aI32
aI16
aI32
aI16
aI32
aI64
aI32
aI16
aI32
aI32
aI304
aI16
aI256
aI64
aI16
aI16
aI16
aI192
aI16
aI16
aI176
aI32
aI48
aI176
aI16
aI32
aI272
aI32
aI112
aI48
aI16
aI16
aI576
aI16
aI16
aI928
aI32
aI16
aI192
aI304
aI16
aI32
aI80
aI32
aI16
aI16
aI16
aI16
aI16
aI16
aI16
aI16
aI112
aI16
aI16
aI304
aI32
aI16
aI80
aI80
aI32
aI32
aI16
aI96
aI16
aI48
aI32
aI64
aI16
aI48
aI16
aI80
aI48
aI16
aI64
aI208
aI128
aI32
aI321
aI16
aI16
aI64
aI16
aI32
aI16
aI160
aI176
aI592
aI16
aI48
aI16
aI80
aI16
aI16
aI16
aI129
aI16
aI640
aI16
aI64
aI144
aI48
aI48
aI32
aI32
aI32
aI80
aI128
aI176
aI32
aI992
aI16
aI528
aI64
aI32
aI336
aI176
aI32
aI32
aI64
aI16
aI16
aI16
aI112
aI112
aI272
aI176
aI64
aI16
aI16
aI16
aI16
aI32
aI16
aI16
aI48
aI16
aI576
aI64
aI160
aI64
aI112
aI16
aI16
aI16
aI16
aI592
aI16
aI16
aI16
aI64
aI16
aI16
aI176
aI113
aI176
aI432
aI16
aI64
aI192
aI64
aI560
aI16
aI160
aI272
aI96
aI16
aI16
aI16
aI16
aI48
aI16
aI48
aI16
aI112
aI16
aI16
aI32
aI128
aI16
aI16
aI16
aI16
aI1328
aI240
aI16
aI32
aI32
aI16
aI6320
aI16
aI64
aI48
aI16
aI96
aI96
aI224
aI16
aI192
aI112
aI32
aI48
aI16
aI16
aI80
aI16
aI48
aI16
aI80
aI112
aI224
aI80
aI16
aI368
aI48
aI16
aI32
aI32
aI224
aI32
aI16
aI16
aI16
aI32
aI512
aI16
aI16
aI64
aI16
aI16
aI192
aI16
aI16
aI32
aI160
aI32
aI432
aI48
aI16
aI464
aI96
aI48
aI624
aI192
aI144
aI32
aI16
aI16
aI272
aI80
aI64
aI80
aI16
aI256
aI16
aI16
aI16
aI48
aI160
aI1104
aI48
aI32
aI48
aI16
aI16
aI16
aI16
aI288
aI32
aI176
aI48
aI16
aI160
aI32
aI32
aI96
aI32
aI432
aI16
aI16
aI48
aI16
aI144
aI176
aI48
aI32
aI48
aI240
aI16
aI16
aI32
aI16
aI512
aI80
aI16
aI16
aI16
aI16
aI16
aI64
aI16
aI64
aI1
aI304
aI96
aI16
aI32
aI80
aI16
aI304
aI64
aI64
aI672
aI560
aI48
aI160
aI16
aI32
aI16
aI16
aI288
aI16
aI560
aI16
aI16
aI608
aI16
aI64
aI80
aI32
aI32
aI16
aI32
aI32
aI80
aI32
aI32
aI32
aI16
aI16
aI16
aI32
aI16
aI64
aI16
aI16
aI16
aI32
aI48
aI16
aI80
aI64
aI16
aI672
aI16
aI16
aI80
aI32
aI48
aI16
aI16
aI16
aI16
aI240
aI32
aI544
aI48
aI1008
aI48
aI32
aI1841
aI96
aI32
aI16
aI32
aI192
aI224
aI16
aI32
aI16
aI576
aI80
aI16
aI256
aI32
aI48
aI48
aI32
aI16
aI16
aI128
aI64
aI80
aI176
aI32
aI32
aI16
aI16
aI16
aI64
aI160
aI32
aI32
aI80
aI16
aI32
aI32
aI16
aI416
aI16
aI96
aI32
aI1632
aI160
aI192
aI32
aI528
aI16
aI16
aI32
aI48
aI16
aI16
aI4784
aI32
aI32
aI16
aI16
aI192
aI48
aI16
aI496
aI16
aI32
aI16
aI16
aI224
aI32
aI32
aI16
aI32
aI160
aI160
aI80
aI16
aI16
aI16
aI48
aI32
aI16
aI1872
aI64
aI16
aI16
aI112
aI16
aI16
aI48
aI80
aI16
aI112
aI480
aI16
aI112
aI32
aI16
aI16
aI48
aI1
aI16
aI64
aI48
aI16
aI64
aI16
aI16
aI960
aI16
aI1408
aI48
aI80
aI80
aI32
aI16
aI16
aI16
aI48
aI16
aI32
aI16
aI16
aI16
aI17
aI16
aI32
aI16
aI64
aI32
aI64
aI16
aI96
aI16
aI1216
aI16
aI48
aI176
aI32
aI80
aI256
aI16
aI80
aI48
aI16
aI80
aI48
aI400
aI160
aI240
aI32
aI16
aI16
aI64
aI48
aI16
aI32
aI16
aI64
aI160
aI32
aI32
aI16
aI16
aI16
aI48
aI48
aI656
aI16
aI912
aI16
aI96
aI256
aI32
aI64
aI16
aI16
aI16
aI128
aI240
aI96
aI16
aI16
aI16
aI80
aI16
aI16
aI16
aI32
aI16
aI32
aI16
aI864
aI96
aI16
aI672
aI192
aI48
aI144
aI48
aI48
aI32
aI16
aI16
aI80
aI64
aI224
aI320
aI176
aI16
aI48
aI320
aI320
aI48
aI640
aI128
aI16
aI192
aI1472
aI16
aI16
aI48
aI16
aI80
aI16
aI432
aI16
aI16
aI16
aI64
aI832
aI16
aI16
aI64
aI16
aI112
aI80
aI76551
aI16
aI80
aI16
aI144
aI32
aI64
aI160
aI48
aI16
aI16
aI64
aI48
aI224
aI16
aI96
aI16
aI10864
aI48
aI96
aI16
aI224
aI97
aI192
aI16
aI368
aI16
aI48
aI16
aI96
aI32
aI1264
aI208
aI16
aI16
aI16
aI32
aI160
aI16
aI64
aI16
aI64
aI32
aI80
aI48
aI16
aI16
aI16
aI48
aI48
aI16
aI32
aI16
aI160
aI48
aI16
aI16
aI16
aI32
aI16
aI48
aI544
aI144
aI16
aI16
aI48
aI16
aI144
aI64
aI32
aI16
aI16
aI16
aI16
aI16
aI16
aI16
aI112
aI2528
aI16
aI16
aI336
aI16
aI16
aI16
aI16
aI16
aI16
aI16
aI32
aI16
aI16
aI16
aI16
aI48
aI16
aI16
aI32
aI64
aI32
aI352
aI48
aI16
aI32
aI272
aI16
aI1888
aI192
aI16
aI48
aI16
aI16
aI16
aI16
aI80
aI16
aI16
aI16
aI16
aI32
aI32
aI32
aI16
aI16
aI32
aI32
aI16
aI112
aI48
aI432
aI80
aI256
aI576
aI16
aI80
aI16
aI16
aI112
aI208
aI64
aI832
aI64
aI1840
aI64
aI16
aI32
aI688
aI16
aI16
aI16
aI48
aI16
aI16
aI16
aI880
aI16
aI16
aI32
aI64
aI16
aI32
aI16
aI16
aI48
aI32
aI16
aI16
aI272
aI1296
aI16
aI96
aI16
aI48
aI128
aI288
aI48
aI1936
aI48
aI32
aI16
aI256
aI32
aI144
aI16
aI16
aI32
aI64
aI16
aI16
aI608
aI16
aI144
aI16
aI64
aI48
aI16
aI16
aI16
aI32
aI16
aI416
aI96
aI288
aI16
aI16
aI80
aI112
aI16
aI16
aI128
aI16
aI32
aI128
aI48
aI16
aI256
aI32
aI224
aI48
aI128
aI80
aI32
aI16
aI48
aI16
aI384
aI16
aI16
aI16
aI128
aI16
aI128
aI128
aI48
aI656
aI16
aI192
aI16
aI16
aI176
aI16
aI464
aI80
aI80
aI144
aI32
aI48
aI16
aI16
aI16
aI16
aI32
aI384
aI16
aI672
aI32
aI16
aI16
aI48
aI16
aI32
aI128
aI16
aI64
aI96
aI16
aI48
aI304
aI64
aI16
aI80
aI256
aI48
aI368
aI1424
aI16
aI16
aI32
aI32
aI16
aI384
aI32
aI16
aI16
aI80
aI16
aI32
aI96
aI32
aI16
aI16
aI48
aI32
aI16
aI32
aI256
aI1200
aI16
aI208
aI48
aI96
aI16
aI240
aI432
aI16
aI64
aI80
aI32
aI48
aI4322
aI16
aI16
aI16
aI32
aI16
aI32
aI32
aI48
aI16
aI32
aI80
aI368
aI480
aI656
aI64
aI192
aI288
aI256
aI16
aI16
aI160
aI64
aI64
aI32
aI16
aI16
aI16
aI48
aI144
aI1920
aI16
aI16
aI64
aI16
aI96
aI16
aI240
aI16
aI16
aI32
aI544
aI176
aI16
aI48
aI32
aI48
aI688
aI80
aI32
aI64
aI80
aI128
aI288
aI16
aI16
aI16
aI16
aI288
aI16
aI16
aI816
aI16
aI32
aI592
aI48
aI80
aI16
aI32
aI32
aI48
aI2288
aI48
aI16
aI272
aI288
aI16
aI16
aI16
aI48
aI16
aI192
aI16
aI16
aI16
aI496
aI32
aI48
aI40625
aI32
aI32
aI224
aI32
aI16
aI64
aI560
aI16
aI64
aI64
aI32
aI16
aI64
aI16
aI128
aI48
aI16
aI16595
aI16
aI48
aI16
aI16
aI80
aI192
aI32
aI496
aI16
aI48
aI352
aI560
aI272
aI64
aI112
aI32
aI16
aI256
aI4832
aI48
aI16
aI16
aI16
aI32
aI208
aI16
aI32
aI32
aI16
aI16
aI448
aI80
aI48
aI96
aI32
aI16
aI128
aI16
aI16
aI80
aI16
aI1024
aI80
aI64
aI96
aI16
aI32
aI64
aI16
aI112
aI112
aI368
aI16
aI16
aI48
aI64
aI32
aI16
aI16
aI112
aI16
aI48
aI16
aI16
aI16
aI16
aI16
aI16
aI32
aI240
aI32
aI16
aI16
aI16
aI32
aI16
aI16
aI16
aI880
aI16
aI80
aI16
aI64
aI16
aI32
aI640
aI64
aI32
aI384
aI32
aI224
aI512
aI80
aI64
aI48
aI32
aI16
aI16
aI881
aI48
aI16
aI16
aI16
aI96
aI48
aI48
aI112
aI416
aI64
aI96
aI16
aI112
aI32
aI16
aI144
aI32
aI80
aI16
aI9697
aI96
aI32
aI16
aI16
aI208
aI128
aI96
aI16
aI16
aI688
aI2848
aI160
aI16
aI32
aI32
aI128
aI32
aI16
aI656
aI48
aI80
aI1120
aI16
aI48
aI560
aI16
aI240
aI656
aI224
aI16
aI16
aI32
aI368
aI224
aI32
aI64
aI64
aI16
aI16
aI16
aI32
aI16
aI320
aI16
aI16
aI32
aI16
aI2640
aI16
aI752
aI16
aI16
aI16
aI32
aI16
aI32
aI16
aI16
aI160
aI64
aI32
aI80
aI16
aI16
aI2320
aI32
aI320
aI16
aI16
aI16
aI16
aI5408
aI16
aI704
aI48
aI64
aI48
aI176
aI16
aI864
aI16
aI16
aI16
aI64
aI192
aI32
aI16
aI16
aI16
aI16
aI80
aI16
aI32
aI128
aI80
aI112
aI16
aI16
aI16
aI64
aI288
aI16
aI16
aI576
aI16
aI16
aI32
aI16
aI16
aI32
aI80
aI16
aI80
aI32
aI16
aI656
aI16
aI240
aI16
aI16
aI16
aI16
aI32
aI32
aI16
aI32
aI1152
aI288
aI96
aI32
aI144
aI64
aI16
aI16
aI32
aI16
aI16
aI16
aI16
aI64
aI16
aI192
aI16
aI64
aI16
aI16
aI16
aI16
aI16
aI32
aI16
aI96
aI16
aI16
aI32
aI16
aI32
aI48
aI128
aI16
aI16
aI32
aI144
aI288
aI416
aI16
aI368
aI128
aI48
aI16
aI32
aI16
aI16
aI32
aI32
aI80
aI48
aI32
aI16
aI16
aI16
aI17
aI256
aI112
aI32
aI32
aI16
aI16
aI16
aI32
aI16
aI192
aI784
aI16
aI944
aI32
aI112
aI32
aI16
aI96
aI144
aI16
aI48
aI16
aI16
aI16
aI16
aI160
aI16
aI1856
aI304
aI144
aI16
aI16
aI16
aI16
aI80
aI112
aI64
aI32
aI32
aI16
aI64
aI16
aI16
aI288
aI16
aI16
aI80
aI16
aI16
aI64
aI48
aI1136
aI160
aI1344
aI16
aI16
aI32
aI48
aI545
aI16
aI16
aI48
aI288
aI16
aI16
aI112
aI16
aI16
aI48
aI16
aI16
aI32
aI64
aI288
aI16
aI1104
aI16
aI16
aI32
aI16
aI16
aI464
aI16
aI32
aI128
aI32
aI1408
aI16
aI16
aI608
aI16
aI16
aI16
aI48
aI16
aI32
aI16
aI32
aI16
aI32
aI16
aI64
aI208
aI112
aI48
aI16
aI16
aI64
aI32
aI48
aI16
aI16
aI624
aI32
aI128
aI224
aI96
aI112
aI64
aI16
aI64
aI224
aI32
aI16
aI48
aI480
aI32
aI32
aI16
aI16
aI944
aI32
aI16
aI64
aI32
aI64
aI16
aI32
aI384
aI32
aI80
aI16
aI48
aI16
aI336
aI272
aI16
aI96
aI16
aI273
aI48
aI48
aI80
aI16
aI16
aI224
aI64
aI16
aI80
aI16
aI16
aI128
aI672
aI16
aI32
aI32
aI272
aI16
aI16
aI48
aI32
aI16
aI32
aI272
aI496
aI32
aI32
aI176
aI32
aI16
aI32
aI16
aI16
aI16
aI288
aI16
aI160
aI48
aI32
aI16
aI16
aI256
aI16
aI32
aI16
aI32
aI16
aI32
aI16
aI16
aI48
aI32
aI96
aI48
aI16
aI16
aI16
aI48
aI752
aI16
aI16
aI160
aI64
aI80
aI560
aI1888
aI176
aI48
aI64
aI400
aI16
aI176
aI16
aI48
aI16
aI80
aI160
aI64
aI96
aI304
aI16
aI16
aI16
aI112
aI48
aI16
aI16
aI16
aI80
aI32
aI96
aI16
aI32
aI16
aI256
aI48
aI16
aI32
aI80
aI160
aI32
aI16
aI16
aI64
aI352
aI16
aI48
aI16
aI64
aI16
aI16
aI64
aI48
aI16
aI288
aI16
aI496
aI64
aI48
aI48
aI64
aI3616
aI208
aI64
aI32
aI64
aI16
aI16
aI16
aI16
aI16
aI144
aI32
aI1376
aI16
aI112
aI32
aI80
aI16
aI16
aI128
aI304
aI32
aI16
aI48
aI16
aI80
aI144
aI16
aI240
aI16
aI192
aI128
aI16
aI16
aI16
aI16
aI832
aI20899
aI48
aI80
aI16
aI48
aI32
aI128
aI32
aI128
aI16
aI16
aI128
aI16
aI16
aI32
aI624
aI32
aI16
aI32
aI16
aI16
aI16
aI320
aI176
aI112
aI384
aI304
aI16
aI16
aI32
aI48
aI96
aI64
aI32
aI64
aI592
aI48
aI128
aI16
aI48
aI160
aI32
aI16
aI16
aI80
aI144
aI16
aI16
aI16
aI48
aI144
aI48
aI16
aI16
aI16
aI80
aI16
aI96
aI112
aI32
aI32
aI704
aI16
aI32
aI304
aI208
aI1632
aI16
aI592
aI320
aI528
aI384
aI16
aI32
aI32
aI32
aI16
aI32
aI48
aI48
aI12816
aI208
aI16
aI16
aI16
aI32
aI16
aI48
aI32
aI16
aI16
aI80
aI1664
aI16
aI16
aI32
aI16
aI608
aI16
aI48
aI16
aI16
aI144
aI17
aI16
aI80
aI32
aI32
aI64
aI16
aI80
aI48
aI64
aI16
aI16
aI32
aI32
aI32
aI80
aI80
aI16
aI16
aI48
aI16
aI16
aI112
aI16
aI128
aI64
aI336
aI576
aI16
aI16
aI16
aI480
aI64
aI80
aI16
aI16
aI48
aI64
aI32
aI16
aI48
aI128
aI64
aI448
aI320
aI48
aI64
aI16
aI16
aI16
aI320
aI320
aI240
aI16
aI192
aI528
aI32
aI16
aI16
aI80
aI32
aI32
aI16
aI64
aI16
aI16
aI464
aI16
aI32
aI752
aI16
aI16
aI1632
aI16
aI32
aI224
aI16
aI80
aI32
aI16
aI32
aI64
aI16
aI64
aI32
aI368
aI16
aI128
aI80
aI144
aI48
aI48
aI16
aI16
aI16
aI16
aI16
aI16
aI2160
aI64
aI112
aI32
aI64
aI32
aI48
aI32
aI16
aI16
aI32
aI32
aI80
aI16
aI160
aI16
aI64
aI16
aI16
aI32
aI32
aI16
aI128
aI80
aI32
aI128
aI128
aI32
aI16
aI32
aI80
aI16
aI16
aI256
aI16
aI16
aI32
aI16
aI32
aI160
aI48
aI32
aI32
aI16
aI16
aI160
aI16
aI16
aI16
aI32
aI80
aI16
aI16
aI16
aI16
aI16
aI16
aI32
aI400
aI16
aI912
aI16
aI80
aI32
aI32
aI112
aI80
aI16
aI160
aI16
aI64
aI32
aI16
aI16
aI32
aI16
aI32
aI16
aI16
aI16
aI16
aI32
aI16
aI32
aI48
aI16
aI160
aI80
aI64
aI16
aI16
aI16
aI512
aI1152
aI16
aI32
aI80
aI144
aI16
aI272
aI16
aI96
aI16
aI16
aI32
aI192
aI160
aI80
aI16
aI64
aI16
aI80
aI48
aI32
aI48
aI16
aI144
aI64
aI48
aI32
aI880
aI16
aI16
aI16
aI32
aI480
aI48
aI16
aI16
aI256
aI80
aI80
aI352
aI32
aI48
aI32
aI32
aI32
aI16
aI48
aI32
aI64
aI32
aI16
aI16
aI32
aI16
aI128
aI16
aI16
aI96
aI80
aI208
aI16
aI16
aI400
aI16
aI416
aI16
aI32
aI224
aI128
aI16
aI304
aI64
aI32
aI80
aI32
aI16
aI496
aI16
aI48
aI240
aI16
aI16
aI16
aI112
aI16
aI80
aI32
aI688
aI48
aI16
aI16
aI320
aI112
aI16
aI2352
aI16
aI32
aI32
aI16
aI112
aI320
aI1296
aI16
aI80
aI16
aI80
aI144
aI16
aI32
aI16
aI112
aI1696
aI16
aI16
aI16
aI400
aI577
aI16
aI16
aI48
aI144
aI32
aI32
aI16
aI16
aI16
aI32
aI16
aI16
aI16
aI480
aI48
aI32
aI1456
aI16
aI16
aI16
aI32
aI96
aI32
aI16
aI96
aI64
aI96
aI144
aI144
aI16
aI80
aI16
aI16
aI32
aI16
aI32
aI48
aI48
aI64
aI16
aI16
aI32
aI176
aI112
aI16
aI16
aI16
aI16
aI144
aI32
aI368
aI608
aI16
aI48
aI112
aI176
aI80
aI16
aI16
aI112
aI128
aI64
aI16
aI16
aI16
aI16
aI48
aI32
aI16
aI80
aI144
aI16
aI16
aI176
aI96
aI16
aI16
aI272
aI64
aI16
aI32
aI144
aI160
aI16
aI16
aI16
aI16
aI80
aI48
aI32
aI417
aI16
aI16
aI3072
aI769
aI16
aI16
aI352
aI32
aI160
aI16
aI1424
aI32
aI48
aI32
aI32
aI32
aI64
aI48
aI16
aI48
aI16
aI176
aI80
aI32
aI16
aI32
aI16
aI16
aI48
aI192
aI16
aI32
aI16
aI32
aI176
aI32
aI16
aI48
aI32
aI96
aI32
aI16
aI64
aI16
aI16
aI48
aI848
aI16
aI192
aI64
aI144
aI16
aI16
aI768
aI16
aI416
aI320
aI16
aI416
aI16
aI16
aI32
aI768
aI16
aI32
aI32
aI368
aI16
aI16
aI16
aI96
aI513
aI16
aI16
aI32
aI32
aI16
aI16
aI16
aI32
aI416
aI16
aI16
aI32
aI16
aI16
aI16
aI16
aI16
aI32
aI16
aI48
aI16
aI16
aI16
aI80
aI16
aI512
aI16
aI32
aI32
aI16
aI48
aI48
aI32
aI16
aI16
aI64
aI16
aI16
aI32
aI16
aI432
aI272
aI128
aI1152
aI48
aI464
aI96
aI48
aI80
aI16
aI64
aI384
aI16
aI16
aI16
aI144
aI16
aI16
aI240
aI224
aI48
aI80
aI16
aI16
aI80
aI112
aI16
aI16
aI16
aI16
aI96
aI16
aI560
aI96
aI32
aI80
aI16
aI48
aI16
aI194
aI800
aI16
aI48
aI32
aI11875
aI80
aI16
aI48
aI16
aI5232
aI48
aI96
aI16
aI48
aI16
aI48
aI16
aI16
aI16
aI16
aI64
aI80
aI64
aI16
aI48
aI32
aI48
aI80
aI16
aI80
aI192
aI16
aI16
aI16
aI16
aI32
aI16
aI608
aI16
aI208
aI16
aI16
aI32
aI32
aI16
aI496
aI32
aI64
aI32
aI112
aI144
aI16
aI112
aI144
aI16
aI48
aI48
aI16
aI16
aI32
aI32
aI16
aI80
aI16
aI32
aI32
aI16
aI16
aI80
aI64
aI64
aI16
aI80
aI6288
aI48
aI16
aI16
aI16
aI48
aI96
aI16
aI16
aI32
aI112
aI16
aI160
aI688
aI48
aI32
aI32
aI848
aI16
aI80
aI32
aI16
aI16
aI112
aI32
aI16
aI16
aI16
aI32
aI16
aI80
aI16
aI32
aI16
aI64
aI16
aI16
aI64
aI80
aI48
aI16
aI48
aI16
aI64
aI32
aI16
aI192
aI16
aI16
aI16
aI32
aI16
aI432
aI32
aI6176
aI432
aI112
aI32
aI16
aI64
aI16
aI16
aI4096
aI16
aI32
aI32
aI226
aI48
aI16
aI32
aI16
aI112
aI16
aI16
aI224
aI48
aI16
aI128
aI64
aI16
aI368
aI16
aI16
aI304
aI368
aI64
aI48
aI96
aI80
aI16
aI16
aI32
aI32
aI16
aI112
aI16
aI16
aI32
aI192
aI16
aI192
aI32
aI576
aI32
aI48
aI48
aI16
aI16
aI16
aI16
aI112
aI16
aI32
aI384
aI32
aI32
aI32
aI32
aI48
aI16
aI16
aI16
aI16
aI32
aI16
aI48
aI16
aI80
aI16
aI48
aI32
aI16
aI16
aI848
aI32
aI96
aI288
aI16
aI48
aI16
aI16
aI32
aI64
aI32
aI16
aI128
aI16
aI32
aI48
aI16
aI432
aI32
aI16
aI48
aI128
aI32
aI16
aI64
aI48
aI208
aI32
aI256
aI96
aI16
aI64
aI64
aI32
aI160
aI352
aI272
aI16
aI16
aI208
aI16
aI16
aI32
aI32
aI624
aI288
aI144
aI112
aI32
aI592
aI32
aI1008
aI16
aI16
aI48
aI96
aI32
aI48
aI16
aI64
aI960
aI64
aI32
aI16
aI16
aI16
aI32
aI32
aI288
aI16
aI16
aI16
aI336
aI112
aI32
aI96
aI400
aI32
aI16
aI64
aI16
aI32
aI16
aI304
aI304
aI32
aI16
aI752
aI48
aI80
aI32
aI1680
aI16
aI64
aI160
aI16
aI96
aI16
aI16
aI32
aI16
aI80
aI112
aI16
aI16
aI448
aI16
aI32
aI80
aI176
aI48
aI26385
aI16
aI32
aI32
aI240
aI32
aI16
aI16
aI16
aI16
aI48
aI48
aI16
aI192
aI224
aI64
aI16
aI32
aI112
aI16
aI32
aI48
aI32
aI16
aI288
aI16
aI80
aI32
aI560
aI80
aI16
aI288
aI336
aI32
aI256
aI336
aI16
aI16
aI16
aI16
aI16
aI16
aI16
aI32
aI32
aI16
aI32
aI16
aI32
aI144
aI32
aI96
aI32
aI16
aI16
aI16
aI48
aI16
aI16
aI32
aI240
aI192
aI16
aI48
aI16
aI48
aI48
aI32
aI16
aI16
aI64
aI16
aI208
aI16
aI32
aI16
aI192
aI16
aI14592
aI48
aI16
aI16
aI16
aI32
aI32
aI96
aI80
aI16
aI1184
aI1024
aI112
aI272
aI5024
aI16
aI80
aI176
aI48
aI112
aI96
aI96
aI16
aI368
aI16
aI112
aI16
aI16
aI16
aI32
aI5968
aI16
aI960
aI16
aI16
aI16
aI192
aI80
aI16
aI1680
aI16
aI32
aI16
aI160
aI2432
aI16
aI96
aI272
aI16
aI48
aI16
aI16
aI48
aI32
aI352
aI32
aI16
aI16
aI16
aI32
aI96
aI16
aI32
aI16
aI48
aI592
aI16
aI16
aI16
aI64
aI336
aI16
aI32
aI16
aI16
aI2016
aI16
aI16
aI16
aI32
aI32
aI16
aI128
aI16
aI16
aI112
aI16
aI32
aI48
aI80
aI1264
aI240
aI64
aI16
aI32
aI48
aI16
aI464
aI32
aI32
aI16
aI16
aI16
aI16
aI1072
aI16
aI192
aI48
aI48
aI32
aI16
aI48
aI16
aI16
aI1584
aI64
aI80
aI32
aI160
aI16
aI16
aI16
aI256
aI64
aI16
aI16
aI384
aI16
aI16
aI272
aI48
aI16
aI32
aI256
aI32
aI16
aI64
aI32
aI16
aI16
aI16
aI32
aI16
aI16
aI32
aI32
aI544
aI48
aI48
aI128
aI16
aI16
aI16
aI48
aI32
aI144
aI16
aI2048
aI96
aI864
aI256
aI1488
aI16
aI96
aI96
aI16
aI16
aI80
aI16
aI16
aI16
aI80
aI16
aI16
aI16
aI576
aI64
aI48
aI16
aI48
aI80
aI16
aI64
aI32
aI736
aI32
aI160
aI704
aI16
aI48
aI64
aI96
aI64
aI32
aI16
aI48
aI64
aI16
aI16
aI32
aI80
aI48
aI32
aI80
aI80
aI32
aI80
aI16
aI80
aI16
aI416
aI32
aI144
aI96
a.